---
triple:          'arm64-apple-darwin'
binary-path:     main.o
relocations:
  - { offsetInCU: 0xB736, offset: 0xB736, size: 0x8, addend: 0x0, symName: __ZNSt3__124__put_character_sequenceB8ue170006IcNS_11char_traitsIcEEEERNS_13basic_ostreamIT_T0_EES7_PKS4_m, symObjAddr: 0xD504, symBinAddr: 0x10000EF88, symSize: 0x1EC }
  - { offsetInCU: 0xF271, offset: 0xF271, size: 0x8, addend: 0x0, symName: __ZNSt3__1lsB8ue170006INS_11char_traitsIcEEEERNS_13basic_ostreamIcT_EES6_PKc, symObjAddr: 0xD40, symBinAddr: 0x1000027C4, symSize: 0x48 }
  - { offsetInCU: 0xF2B7, offset: 0xF2B7, size: 0x8, addend: 0x0, symName: __ZNSt3__14endlB8ue170006IcNS_11char_traitsIcEEEERNS_13basic_ostreamIT_T0_EES7_, symObjAddr: 0xDB4, symBinAddr: 0x100002838, symSize: 0x58 }
  - { offsetInCU: 0xF2F7, offset: 0xF2F7, size: 0x8, addend: 0x0, symName: __ZNSt3__15fixedB8ue170006ERNS_8ios_baseE, symObjAddr: 0x24E0, symBinAddr: 0x100003F64, symSize: 0x30 }
  - { offsetInCU: 0xF325, offset: 0xF325, size: 0x8, addend: 0x0, symName: __ZNSt3__1lsB8ue170006INS_11char_traitsIcEEEERNS_13basic_ostreamIcT_EES6_c, symObjAddr: 0x2E80, symBinAddr: 0x100004904, symSize: 0x34 }
  - { offsetInCU: 0xF36B, offset: 0xF36B, size: 0x8, addend: 0x0, symName: __ZNSt3__1neB8ue170006IPP8MushroomEEbRKNS_11__wrap_iterIT_EES8_, symObjAddr: 0x3130, symBinAddr: 0x100004BB4, symSize: 0x34 }
  - { offsetInCU: 0xF3AE, offset: 0xF3AE, size: 0x8, addend: 0x0, symName: __ZNSt3__1eqB8ue170006IPP8MushroomEEbRKNS_11__wrap_iterIT_EES8_, symObjAddr: 0x33A8, symBinAddr: 0x100004E2C, symSize: 0x48 }
  - { offsetInCU: 0xF3F1, offset: 0xF3F1, size: 0x8, addend: 0x0, symName: __ZNSt3__112__to_addressB8ue170006IP8MushroomEEPT_S4_, symObjAddr: 0x3E00, symBinAddr: 0x100005884, symSize: 0x14 }
  - { offsetInCU: 0xF426, offset: 0xF426, size: 0x8, addend: 0x0, symName: __ZNSt3__119__libcpp_deallocateB8ue170006EPvmm, symObjAddr: 0x3EB0, symBinAddr: 0x100005934, symSize: 0x30 }
  - { offsetInCU: 0xF46E, offset: 0xF46E, size: 0x8, addend: 0x0, symName: __ZNSt3__127__do_deallocate_handle_sizeB8ue170006IJEEEvPvmDpT_, symObjAddr: 0x3EE0, symBinAddr: 0x100005964, symSize: 0x28 }
  - { offsetInCU: 0xF4AC, offset: 0xF4AC, size: 0x8, addend: 0x0, symName: __ZNSt3__124__libcpp_operator_deleteB8ue170006IJPvEEEvDpT_, symObjAddr: 0x3F08, symBinAddr: 0x10000598C, symSize: 0x24 }
  - { offsetInCU: 0xF4E1, offset: 0xF4E1, size: 0x8, addend: 0x0, symName: __ZNSt3__112__to_addressB8ue170006IP4NodeEEPT_S4_, symObjAddr: 0x4320, symBinAddr: 0x100005DA4, symSize: 0x14 }
  - { offsetInCU: 0xF516, offset: 0xF516, size: 0x8, addend: 0x0, symName: __ZNSt3__112__to_addressB8ue170006INS_6vectorIP4NodeNS_9allocatorIS3_EEEEEEPT_S8_, symObjAddr: 0x4808, symBinAddr: 0x10000628C, symSize: 0x14 }
  - { offsetInCU: 0xF54B, offset: 0xF54B, size: 0x8, addend: 0x0, symName: __ZNSt3__112__to_addressB8ue170006IfEEPT_S2_, symObjAddr: 0x4CC4, symBinAddr: 0x100006748, symSize: 0x14 }
  - { offsetInCU: 0xF580, offset: 0xF580, size: 0x8, addend: 0x0, symName: __ZNSt3__112__to_addressB8ue170006INS_6vectorIfNS_9allocatorIfEEEEEEPT_S6_, symObjAddr: 0x5184, symBinAddr: 0x100006C08, symSize: 0x14 }
  - { offsetInCU: 0xF5B5, offset: 0xF5B5, size: 0x8, addend: 0x0, symName: __ZNSt3__13maxB8ue170006ImEERKT_S3_S3_, symObjAddr: 0x5B90, symBinAddr: 0x100007614, symSize: 0x2C }
  - { offsetInCU: 0xF5F8, offset: 0xF5F8, size: 0x8, addend: 0x0, symName: __ZNSt3__13minB8ue170006ImEERKT_S3_S3_, symObjAddr: 0x5BBC, symBinAddr: 0x100007640, symSize: 0x2C }
  - { offsetInCU: 0xF83C, offset: 0xF83C, size: 0x8, addend: 0x0, symName: __ZNSt3__13minB8ue170006ImNS_6__lessIvvEEEERKT_S5_S5_T0_, symObjAddr: 0x5C48, symBinAddr: 0x1000076CC, symSize: 0x54 }
  - { offsetInCU: 0xF8DB, offset: 0xF8DB, size: 0x8, addend: 0x0, symName: __ZNSt3__120__throw_length_errorB8ue170006EPKc, symObjAddr: 0x5D24, symBinAddr: 0x1000077A8, symSize: 0x64 }
  - { offsetInCU: 0xF905, offset: 0xF905, size: 0x8, addend: 0x0, symName: __ZNSt3__13maxB8ue170006ImNS_6__lessIvvEEEERKT_S5_S5_T0_, symObjAddr: 0x5E08, symBinAddr: 0x10000788C, symSize: 0x54 }
  - { offsetInCU: 0xF95F, offset: 0xF95F, size: 0x8, addend: 0x0, symName: __ZNSt3__119__allocate_at_leastB8ue170006INS_9allocatorIP4NodeEEEENS_19__allocation_resultINS_16allocator_traitsIT_E7pointerEEERS7_m, symObjAddr: 0x5F6C, symBinAddr: 0x1000079F0, symSize: 0x40 }
  - { offsetInCU: 0xF9A2, offset: 0xF9A2, size: 0x8, addend: 0x0, symName: __ZNSt3__117__libcpp_allocateB8ue170006Emm, symObjAddr: 0x60F0, symBinAddr: 0x100007B74, symSize: 0x28 }
  - { offsetInCU: 0xF9DF, offset: 0xF9DF, size: 0x8, addend: 0x0, symName: __ZNSt3__121__libcpp_operator_newB8ue170006IJmEEEPvDpT_, symObjAddr: 0x6118, symBinAddr: 0x100007B9C, symSize: 0x24 }
  - { offsetInCU: 0xFA18, offset: 0xFA18, size: 0x8, addend: 0x0, symName: __ZNSt3__142__uninitialized_allocator_move_if_noexceptB8ue170006INS_9allocatorIP4NodeEENS_16reverse_iteratorIPS3_EES7_S3_vEET1_RT_T0_SB_S8_, symObjAddr: 0x61A0, symBinAddr: 0x100007C24, symSize: 0x78 }
  - { offsetInCU: 0xFA95, offset: 0xFA95, size: 0x8, addend: 0x0, symName: __ZNSt3__14swapB8ue170006IPP4NodeEENS_9enable_ifIXaasr21is_move_constructibleIT_EE5valuesr18is_move_assignableIS5_EE5valueEvE4typeERS5_S8_, symObjAddr: 0x6264, symBinAddr: 0x100007CE8, symSize: 0x3C }
  - { offsetInCU: 0xFAE6, offset: 0xFAE6, size: 0x8, addend: 0x0, symName: __ZNSt3__14moveB8ue170006INS_16reverse_iteratorIPP4NodeEES5_EET0_T_S7_S6_, symObjAddr: 0x634C, symBinAddr: 0x100007DD0, symSize: 0x78 }
  - { offsetInCU: 0xFB40, offset: 0xFB40, size: 0x8, addend: 0x0, symName: __ZNSt3__16__moveB8ue170006INS_17_ClassicAlgPolicyENS_16reverse_iteratorIPP4NodeEES6_S6_EENS_4pairIT0_T2_EES8_T1_S9_, symObjAddr: 0x63C4, symBinAddr: 0x100007E48, symSize: 0x64 }
  - { offsetInCU: 0xFBAC, offset: 0xFBAC, size: 0x8, addend: 0x0, symName: __ZNSt3__123__dispatch_copy_or_moveB8ue170006INS_17_ClassicAlgPolicyENS_11__move_loopIS1_EENS_14__move_trivialENS_16reverse_iteratorIPP4NodeEES9_S9_EENS_4pairIT2_T4_EESB_T3_SC_, symObjAddr: 0x6428, symBinAddr: 0x100007EAC, symSize: 0x64 }
  - { offsetInCU: 0xFC2A, offset: 0xFC2A, size: 0x8, addend: 0x0, symName: __ZNSt3__121__unwrap_and_dispatchB8ue170006INS_10__overloadINS_11__move_loopINS_17_ClassicAlgPolicyEEENS_14__move_trivialEEENS_16reverse_iteratorIPP4NodeEESB_SB_Li0EEENS_4pairIT0_T2_EESD_T1_SE_, symObjAddr: 0x648C, symBinAddr: 0x100007F10, symSize: 0x12C }
  - { offsetInCU: 0xFCBA, offset: 0xFCBA, size: 0x8, addend: 0x0, symName: __ZNSt3__114__unwrap_rangeB8ue170006INS_16reverse_iteratorIPP4NodeEES5_EENS_4pairIT0_S7_EET_S9_, symObjAddr: 0x65B8, symBinAddr: 0x10000803C, symSize: 0x84 }
  - { offsetInCU: 0xFEB3, offset: 0xFEB3, size: 0x8, addend: 0x0, symName: __ZNSt3__113__unwrap_iterB8ue170006INS_16reverse_iteratorIPP4NodeEENS_18__unwrap_iter_implIS5_Lb0EEELi0EEEDTclsrT0_8__unwrapclsr3stdE7declvalIT_EEEES9_, symObjAddr: 0x66DC, symBinAddr: 0x100008160, symSize: 0x44 }
  - { offsetInCU: 0xFEF7, offset: 0xFEF7, size: 0x8, addend: 0x0, symName: __ZNSt3__19make_pairB8ue170006INS_16reverse_iteratorIPP4NodeEES5_EENS_4pairINS_18__unwrap_ref_decayIT_E4typeENS7_IT0_E4typeEEEOS8_OSB_, symObjAddr: 0x6720, symBinAddr: 0x1000081A4, symSize: 0x38 }
  - { offsetInCU: 0xFF46, offset: 0xFF46, size: 0x8, addend: 0x0, symName: __ZNSt3__114__rewrap_rangeB8ue170006INS_16reverse_iteratorIPP4NodeEES5_EET_S6_T0_, symObjAddr: 0x6758, symBinAddr: 0x1000081DC, symSize: 0x5C }
  - { offsetInCU: 0xFF92, offset: 0xFF92, size: 0x8, addend: 0x0, symName: __ZNSt3__113__rewrap_iterB8ue170006INS_16reverse_iteratorIPP4NodeEES5_NS_18__unwrap_iter_implIS5_Lb0EEEEET_S8_T0_, symObjAddr: 0x67B4, symBinAddr: 0x100008238, symSize: 0x74 }
  - { offsetInCU: 0xFFE7, offset: 0xFFE7, size: 0x8, addend: 0x0, symName: __ZNSt3__1neB8ue170006IPP4NodeS3_EEbRKNS_16reverse_iteratorIT_EERKNS4_IT0_EE, symObjAddr: 0x6828, symBinAddr: 0x1000082AC, symSize: 0x48 }
  - { offsetInCU: 0x1014B, offset: 0x1014B, size: 0x8, addend: 0x0, symName: __ZNSt3__122__make_exception_guardB8ue170006INS_6vectorIP4NodeNS_9allocatorIS3_EEE16__destroy_vectorEEENS_28__exception_guard_exceptionsIT_EES9_, symObjAddr: 0x70C0, symBinAddr: 0x100008B44, symSize: 0x40 }
  - { offsetInCU: 0x10180, offset: 0x10180, size: 0x8, addend: 0x0, symName: __ZNSt3__130__uninitialized_allocator_copyB8ue170006INS_9allocatorIP4NodeEEPS3_S5_S5_EET2_RT_T0_T1_S6_, symObjAddr: 0x72D8, symBinAddr: 0x100008D5C, symSize: 0x80 }
  - { offsetInCU: 0x1021D, offset: 0x1021D, size: 0x8, addend: 0x0, symName: __ZNSt3__114__unwrap_rangeB8ue170006IPP4NodeS3_EENS_4pairIT0_S5_EET_S7_, symObjAddr: 0x7358, symBinAddr: 0x100008DDC, symSize: 0x60 }
  - { offsetInCU: 0x10269, offset: 0x10269, size: 0x8, addend: 0x0, symName: __ZNSt3__135__uninitialized_allocator_copy_implB8ue170006INS_9allocatorIP4NodeEES3_S3_S3_LPv0EEEPT2_RT_PT0_SB_S7_, symObjAddr: 0x73B8, symBinAddr: 0x100008E3C, symSize: 0x38 }
  - { offsetInCU: 0x102EA, offset: 0x102EA, size: 0x8, addend: 0x0, symName: __ZNSt3__113__unwrap_iterB8ue170006IPP4NodeNS_18__unwrap_iter_implIS3_Lb1EEELi0EEEDTclsrT0_8__unwrapclsr3stdE7declvalIT_EEEES7_, symObjAddr: 0x73F0, symBinAddr: 0x100008E74, symSize: 0x24 }
  - { offsetInCU: 0x1032E, offset: 0x1032E, size: 0x8, addend: 0x0, symName: __ZNSt3__113__rewrap_iterB8ue170006IPP4NodeS3_NS_18__unwrap_iter_implIS3_Lb1EEEEET_S6_T0_, symObjAddr: 0x7414, symBinAddr: 0x100008E98, symSize: 0x3C }
  - { offsetInCU: 0x10383, offset: 0x10383, size: 0x8, addend: 0x0, symName: __ZNSt3__19make_pairB8ue170006IPP4NodeS3_EENS_4pairINS_18__unwrap_ref_decayIT_E4typeENS5_IT0_E4typeEEEOS6_OS9_, symObjAddr: 0x7450, symBinAddr: 0x100008ED4, symSize: 0x38 }
  - { offsetInCU: 0x104D5, offset: 0x104D5, size: 0x8, addend: 0x0, symName: __ZNSt3__14copyB8ue170006IPP4NodeS3_EET0_T_S5_S4_, symObjAddr: 0x74F8, symBinAddr: 0x100008F7C, symSize: 0x40 }
  - { offsetInCU: 0x1052F, offset: 0x1052F, size: 0x8, addend: 0x0, symName: __ZNSt3__16__copyB8ue170006INS_17_ClassicAlgPolicyEPP4NodeS4_S4_EENS_4pairIT0_T2_EES6_T1_S7_, symObjAddr: 0x7538, symBinAddr: 0x100008FBC, symSize: 0x44 }
  - { offsetInCU: 0x1059B, offset: 0x1059B, size: 0x8, addend: 0x0, symName: __ZNSt3__123__dispatch_copy_or_moveB8ue170006INS_17_ClassicAlgPolicyENS_11__copy_loopIS1_EENS_14__copy_trivialEPP4NodeS7_S7_EENS_4pairIT2_T4_EES9_T3_SA_, symObjAddr: 0x757C, symBinAddr: 0x100009000, symSize: 0x44 }
  - { offsetInCU: 0x10619, offset: 0x10619, size: 0x8, addend: 0x0, symName: __ZNSt3__121__unwrap_and_dispatchB8ue170006INS_10__overloadINS_11__copy_loopINS_17_ClassicAlgPolicyEEENS_14__copy_trivialEEEPP4NodeS9_S9_Li0EEENS_4pairIT0_T2_EESB_T1_SC_, symObjAddr: 0x75C0, symBinAddr: 0x100009044, symSize: 0xB4 }
  - { offsetInCU: 0x10729, offset: 0x10729, size: 0x8, addend: 0x0, symName: __ZNSt3__114__rewrap_rangeB8ue170006IPP4NodeS3_EET_S4_T0_, symObjAddr: 0x76BC, symBinAddr: 0x100009140, symSize: 0x2C }
  - { offsetInCU: 0x10775, offset: 0x10775, size: 0x8, addend: 0x0, symName: __ZNSt3__119__copy_trivial_implB8ue170006IP4NodeS2_EENS_4pairIPT_PT0_EES5_S5_S7_, symObjAddr: 0x76E8, symBinAddr: 0x10000916C, symSize: 0x80 }
  - { offsetInCU: 0x107DD, offset: 0x107DD, size: 0x8, addend: 0x0, symName: __ZNSt3__119__constexpr_memmoveB8ue170006IP4NodeS2_Li0EEEPT_S4_PT0_NS_15__element_countE, symObjAddr: 0x7768, symBinAddr: 0x1000091EC, symSize: 0x64 }
  - { offsetInCU: 0x1084B, offset: 0x1084B, size: 0x8, addend: 0x0, symName: __ZNSt3__19make_pairB8ue170006IRPP4NodeS3_EENS_4pairINS_18__unwrap_ref_decayIT_E4typeENS6_IT0_E4typeEEEOS7_OSA_, symObjAddr: 0x77CC, symBinAddr: 0x100009250, symSize: 0x38 }
  - { offsetInCU: 0x108ED, offset: 0x108ED, size: 0x8, addend: 0x0, symName: __ZNSt3__119__allocate_at_leastB8ue170006INS_9allocatorINS_6vectorIP4NodeNS1_IS4_EEEEEEEENS_19__allocation_resultINS_16allocator_traitsIT_E7pointerEEERSA_m, symObjAddr: 0x7DB8, symBinAddr: 0x10000983C, symSize: 0x40 }
  - { offsetInCU: 0x10930, offset: 0x10930, size: 0x8, addend: 0x0, symName: __ZNSt3__142__uninitialized_allocator_move_if_noexceptB8ue170006INS_9allocatorINS_6vectorIP4NodeNS1_IS4_EEEEEENS_16reverse_iteratorIPS6_EESA_SA_EET2_RT_T0_T1_SB_, symObjAddr: 0x7F70, symBinAddr: 0x1000099F4, symSize: 0x12C }
  - { offsetInCU: 0x109D0, offset: 0x109D0, size: 0x8, addend: 0x0, symName: __ZNSt3__14swapB8ue170006IPNS_6vectorIP4NodeNS_9allocatorIS3_EEEEEENS_9enable_ifIXaasr21is_move_constructibleIT_EE5valuesr18is_move_assignableIS9_EE5valueEvE4typeERS9_SC_, symObjAddr: 0x80E8, symBinAddr: 0x100009B6C, symSize: 0x3C }
  - { offsetInCU: 0x10A21, offset: 0x10A21, size: 0x8, addend: 0x0, symName: __ZNSt3__122__make_exception_guardB8ue170006INS_29_AllocatorDestroyRangeReverseINS_9allocatorINS_6vectorIP4NodeNS2_IS5_EEEEEENS_16reverse_iteratorIPS7_EEEEEENS_28__exception_guard_exceptionsIT_EESE_, symObjAddr: 0x81EC, symBinAddr: 0x100009C70, symSize: 0x4C }
  - { offsetInCU: 0x10A57, offset: 0x10A57, size: 0x8, addend: 0x0, symName: __ZNSt3__1neB8ue170006IPNS_6vectorIP4NodeNS_9allocatorIS3_EEEES7_EEbRKNS_16reverse_iteratorIT_EERKNS8_IT0_EE, symObjAddr: 0x827C, symBinAddr: 0x100009D00, symSize: 0x48 }
  - { offsetInCU: 0x10AA3, offset: 0x10AA3, size: 0x8, addend: 0x0, symName: __ZNSt3__112__to_addressB8ue170006INS_16reverse_iteratorIPNS_6vectorIP4NodeNS_9allocatorIS4_EEEEEEvEEu7__decayIDTclsr19__to_address_helperIT_EE6__callclsr3stdE7declvalIRKSA_EEEEESC_, symObjAddr: 0x82F8, symBinAddr: 0x100009D7C, symSize: 0x24 }
  - { offsetInCU: 0x10B02, offset: 0x10B02, size: 0x8, addend: 0x0, symName: __ZNSt3__119__allocator_destroyB8ue170006INS_9allocatorINS_6vectorIP4NodeNS1_IS4_EEEEEENS_16reverse_iteratorINS8_IPS6_EEEESB_EEvRT_T0_T1_, symObjAddr: 0x86D0, symBinAddr: 0x10000A154, symSize: 0x70 }
  - { offsetInCU: 0x10B67, offset: 0x10B67, size: 0x8, addend: 0x0, symName: __ZNSt3__1neB8ue170006INS_16reverse_iteratorIPNS_6vectorIP4NodeNS_9allocatorIS4_EEEEEES9_EEbRKNS1_IT_EERKNS1_IT0_EE, symObjAddr: 0x877C, symBinAddr: 0x10000A200, symSize: 0x60 }
  - { offsetInCU: 0x10BB3, offset: 0x10BB3, size: 0x8, addend: 0x0, symName: __ZNSt3__112__to_addressB8ue170006INS_16reverse_iteratorINS1_IPNS_6vectorIP4NodeNS_9allocatorIS4_EEEEEEEEvEEu7__decayIDTclsr19__to_address_helperIT_EE6__callclsr3stdE7declvalIRKSB_EEEEESD_, symObjAddr: 0x87DC, symBinAddr: 0x10000A260, symSize: 0x24 }
  - { offsetInCU: 0x10C12, offset: 0x10C12, size: 0x8, addend: 0x0, symName: __ZNSt3__119__allocate_at_leastB8ue170006INS_9allocatorIfEEEENS_19__allocation_resultINS_16allocator_traitsIT_E7pointerEEERS5_m, symObjAddr: 0x928C, symBinAddr: 0x10000AD10, symSize: 0x40 }
  - { offsetInCU: 0x10C55, offset: 0x10C55, size: 0x8, addend: 0x0, symName: __ZNSt3__142__uninitialized_allocator_move_if_noexceptB8ue170006INS_9allocatorIfEENS_16reverse_iteratorIPfEES5_fvEET1_RT_T0_S9_S6_, symObjAddr: 0x9440, symBinAddr: 0x10000AEC4, symSize: 0x78 }
  - { offsetInCU: 0x10CD2, offset: 0x10CD2, size: 0x8, addend: 0x0, symName: __ZNSt3__14swapB8ue170006IPfEENS_9enable_ifIXaasr21is_move_constructibleIT_EE5valuesr18is_move_assignableIS3_EE5valueEvE4typeERS3_S6_, symObjAddr: 0x9504, symBinAddr: 0x10000AF88, symSize: 0x3C }
  - { offsetInCU: 0x10D23, offset: 0x10D23, size: 0x8, addend: 0x0, symName: __ZNSt3__14moveB8ue170006INS_16reverse_iteratorIPfEES3_EET0_T_S5_S4_, symObjAddr: 0x95EC, symBinAddr: 0x10000B070, symSize: 0x78 }
  - { offsetInCU: 0x10D7D, offset: 0x10D7D, size: 0x8, addend: 0x0, symName: __ZNSt3__16__moveB8ue170006INS_17_ClassicAlgPolicyENS_16reverse_iteratorIPfEES4_S4_EENS_4pairIT0_T2_EES6_T1_S7_, symObjAddr: 0x9664, symBinAddr: 0x10000B0E8, symSize: 0x64 }
  - { offsetInCU: 0x10DE9, offset: 0x10DE9, size: 0x8, addend: 0x0, symName: __ZNSt3__123__dispatch_copy_or_moveB8ue170006INS_17_ClassicAlgPolicyENS_11__move_loopIS1_EENS_14__move_trivialENS_16reverse_iteratorIPfEES7_S7_EENS_4pairIT2_T4_EES9_T3_SA_, symObjAddr: 0x96C8, symBinAddr: 0x10000B14C, symSize: 0x64 }
  - { offsetInCU: 0x10E67, offset: 0x10E67, size: 0x8, addend: 0x0, symName: __ZNSt3__121__unwrap_and_dispatchB8ue170006INS_10__overloadINS_11__move_loopINS_17_ClassicAlgPolicyEEENS_14__move_trivialEEENS_16reverse_iteratorIPfEES9_S9_Li0EEENS_4pairIT0_T2_EESB_T1_SC_, symObjAddr: 0x972C, symBinAddr: 0x10000B1B0, symSize: 0x12C }
  - { offsetInCU: 0x10EF7, offset: 0x10EF7, size: 0x8, addend: 0x0, symName: __ZNSt3__114__unwrap_rangeB8ue170006INS_16reverse_iteratorIPfEES3_EENS_4pairIT0_S5_EET_S7_, symObjAddr: 0x9858, symBinAddr: 0x10000B2DC, symSize: 0x84 }
  - { offsetInCU: 0x11017, offset: 0x11017, size: 0x8, addend: 0x0, symName: __ZNSt3__113__unwrap_iterB8ue170006INS_16reverse_iteratorIPfEENS_18__unwrap_iter_implIS3_Lb0EEELi0EEEDTclsrT0_8__unwrapclsr3stdE7declvalIT_EEEES7_, symObjAddr: 0x997C, symBinAddr: 0x10000B400, symSize: 0x44 }
  - { offsetInCU: 0x1105B, offset: 0x1105B, size: 0x8, addend: 0x0, symName: __ZNSt3__19make_pairB8ue170006INS_16reverse_iteratorIPfEES3_EENS_4pairINS_18__unwrap_ref_decayIT_E4typeENS5_IT0_E4typeEEEOS6_OS9_, symObjAddr: 0x99C0, symBinAddr: 0x10000B444, symSize: 0x38 }
  - { offsetInCU: 0x110AA, offset: 0x110AA, size: 0x8, addend: 0x0, symName: __ZNSt3__114__rewrap_rangeB8ue170006INS_16reverse_iteratorIPfEES3_EET_S4_T0_, symObjAddr: 0x99F8, symBinAddr: 0x10000B47C, symSize: 0x5C }
  - { offsetInCU: 0x110F6, offset: 0x110F6, size: 0x8, addend: 0x0, symName: __ZNSt3__113__rewrap_iterB8ue170006INS_16reverse_iteratorIPfEES3_NS_18__unwrap_iter_implIS3_Lb0EEEEET_S6_T0_, symObjAddr: 0x9A54, symBinAddr: 0x10000B4D8, symSize: 0x74 }
  - { offsetInCU: 0x1114B, offset: 0x1114B, size: 0x8, addend: 0x0, symName: __ZNSt3__1neB8ue170006IPfS1_EEbRKNS_16reverse_iteratorIT_EERKNS2_IT0_EE, symObjAddr: 0x9AC8, symBinAddr: 0x10000B54C, symSize: 0x48 }
  - { offsetInCU: 0x11203, offset: 0x11203, size: 0x8, addend: 0x0, symName: __ZNSt3__122__make_exception_guardB8ue170006INS_6vectorIfNS_9allocatorIfEEE16__destroy_vectorEEENS_28__exception_guard_exceptionsIT_EES7_, symObjAddr: 0xA360, symBinAddr: 0x10000BDE4, symSize: 0x40 }
  - { offsetInCU: 0x11238, offset: 0x11238, size: 0x8, addend: 0x0, symName: __ZNSt3__130__uninitialized_allocator_copyB8ue170006INS_9allocatorIfEEPfS3_S3_EET2_RT_T0_T1_S4_, symObjAddr: 0xA578, symBinAddr: 0x10000BFFC, symSize: 0x80 }
  - { offsetInCU: 0x112D5, offset: 0x112D5, size: 0x8, addend: 0x0, symName: __ZNSt3__114__unwrap_rangeB8ue170006IPfS1_EENS_4pairIT0_S3_EET_S5_, symObjAddr: 0xA5F8, symBinAddr: 0x10000C07C, symSize: 0x60 }
  - { offsetInCU: 0x11321, offset: 0x11321, size: 0x8, addend: 0x0, symName: __ZNSt3__135__uninitialized_allocator_copy_implB8ue170006INS_9allocatorIfEEfffLPv0EEEPT2_RT_PT0_S9_S5_, symObjAddr: 0xA658, symBinAddr: 0x10000C0DC, symSize: 0x38 }
  - { offsetInCU: 0x113A2, offset: 0x113A2, size: 0x8, addend: 0x0, symName: __ZNSt3__113__unwrap_iterB8ue170006IPfNS_18__unwrap_iter_implIS1_Lb1EEELi0EEEDTclsrT0_8__unwrapclsr3stdE7declvalIT_EEEES5_, symObjAddr: 0xA690, symBinAddr: 0x10000C114, symSize: 0x24 }
  - { offsetInCU: 0x113E6, offset: 0x113E6, size: 0x8, addend: 0x0, symName: __ZNSt3__113__rewrap_iterB8ue170006IPfS1_NS_18__unwrap_iter_implIS1_Lb1EEEEET_S4_T0_, symObjAddr: 0xA6B4, symBinAddr: 0x10000C138, symSize: 0x3C }
  - { offsetInCU: 0x1143B, offset: 0x1143B, size: 0x8, addend: 0x0, symName: __ZNSt3__19make_pairB8ue170006IPfS1_EENS_4pairINS_18__unwrap_ref_decayIT_E4typeENS3_IT0_E4typeEEEOS4_OS7_, symObjAddr: 0xA6F0, symBinAddr: 0x10000C174, symSize: 0x38 }
  - { offsetInCU: 0x1158D, offset: 0x1158D, size: 0x8, addend: 0x0, symName: __ZNSt3__14copyB8ue170006IPfS1_EET0_T_S3_S2_, symObjAddr: 0xA798, symBinAddr: 0x10000C21C, symSize: 0x40 }
  - { offsetInCU: 0x115E7, offset: 0x115E7, size: 0x8, addend: 0x0, symName: __ZNSt3__16__copyB8ue170006INS_17_ClassicAlgPolicyEPfS2_S2_EENS_4pairIT0_T2_EES4_T1_S5_, symObjAddr: 0xA7D8, symBinAddr: 0x10000C25C, symSize: 0x44 }
  - { offsetInCU: 0x11653, offset: 0x11653, size: 0x8, addend: 0x0, symName: __ZNSt3__123__dispatch_copy_or_moveB8ue170006INS_17_ClassicAlgPolicyENS_11__copy_loopIS1_EENS_14__copy_trivialEPfS5_S5_EENS_4pairIT2_T4_EES7_T3_S8_, symObjAddr: 0xA81C, symBinAddr: 0x10000C2A0, symSize: 0x44 }
  - { offsetInCU: 0x116D1, offset: 0x116D1, size: 0x8, addend: 0x0, symName: __ZNSt3__121__unwrap_and_dispatchB8ue170006INS_10__overloadINS_11__copy_loopINS_17_ClassicAlgPolicyEEENS_14__copy_trivialEEEPfS7_S7_Li0EEENS_4pairIT0_T2_EES9_T1_SA_, symObjAddr: 0xA860, symBinAddr: 0x10000C2E4, symSize: 0xB4 }
  - { offsetInCU: 0x1175F, offset: 0x1175F, size: 0x8, addend: 0x0, symName: __ZNSt3__114__rewrap_rangeB8ue170006IPfS1_EET_S2_T0_, symObjAddr: 0xA95C, symBinAddr: 0x10000C3E0, symSize: 0x2C }
  - { offsetInCU: 0x117AB, offset: 0x117AB, size: 0x8, addend: 0x0, symName: __ZNSt3__119__copy_trivial_implB8ue170006IffEENS_4pairIPT_PT0_EES3_S3_S5_, symObjAddr: 0xA988, symBinAddr: 0x10000C40C, symSize: 0x80 }
  - { offsetInCU: 0x11813, offset: 0x11813, size: 0x8, addend: 0x0, symName: __ZNSt3__119__constexpr_memmoveB8ue170006IffLi0EEEPT_S2_PT0_NS_15__element_countE, symObjAddr: 0xAA08, symBinAddr: 0x10000C48C, symSize: 0x64 }
  - { offsetInCU: 0x11881, offset: 0x11881, size: 0x8, addend: 0x0, symName: __ZNSt3__19make_pairB8ue170006IRPfS1_EENS_4pairINS_18__unwrap_ref_decayIT_E4typeENS4_IT0_E4typeEEEOS5_OS8_, symObjAddr: 0xAA6C, symBinAddr: 0x10000C4F0, symSize: 0x38 }
  - { offsetInCU: 0x11923, offset: 0x11923, size: 0x8, addend: 0x0, symName: __ZNSt3__119__allocate_at_leastB8ue170006INS_9allocatorINS_6vectorIfNS1_IfEEEEEEEENS_19__allocation_resultINS_16allocator_traitsIT_E7pointerEEERS8_m, symObjAddr: 0xB058, symBinAddr: 0x10000CADC, symSize: 0x40 }
  - { offsetInCU: 0x11966, offset: 0x11966, size: 0x8, addend: 0x0, symName: __ZNSt3__142__uninitialized_allocator_move_if_noexceptB8ue170006INS_9allocatorINS_6vectorIfNS1_IfEEEEEENS_16reverse_iteratorIPS4_EES8_S8_EET2_RT_T0_T1_S9_, symObjAddr: 0xB210, symBinAddr: 0x10000CC94, symSize: 0x12C }
  - { offsetInCU: 0x11A06, offset: 0x11A06, size: 0x8, addend: 0x0, symName: __ZNSt3__14swapB8ue170006IPNS_6vectorIfNS_9allocatorIfEEEEEENS_9enable_ifIXaasr21is_move_constructibleIT_EE5valuesr18is_move_assignableIS7_EE5valueEvE4typeERS7_SA_, symObjAddr: 0xB388, symBinAddr: 0x10000CE0C, symSize: 0x3C }
  - { offsetInCU: 0x11A57, offset: 0x11A57, size: 0x8, addend: 0x0, symName: __ZNSt3__122__make_exception_guardB8ue170006INS_29_AllocatorDestroyRangeReverseINS_9allocatorINS_6vectorIfNS2_IfEEEEEENS_16reverse_iteratorIPS5_EEEEEENS_28__exception_guard_exceptionsIT_EESC_, symObjAddr: 0xB48C, symBinAddr: 0x10000CF10, symSize: 0x4C }
  - { offsetInCU: 0x11A8D, offset: 0x11A8D, size: 0x8, addend: 0x0, symName: __ZNSt3__1neB8ue170006IPNS_6vectorIfNS_9allocatorIfEEEES5_EEbRKNS_16reverse_iteratorIT_EERKNS6_IT0_EE, symObjAddr: 0xB51C, symBinAddr: 0x10000CFA0, symSize: 0x48 }
  - { offsetInCU: 0x11AD9, offset: 0x11AD9, size: 0x8, addend: 0x0, symName: __ZNSt3__112__to_addressB8ue170006INS_16reverse_iteratorIPNS_6vectorIfNS_9allocatorIfEEEEEEvEEu7__decayIDTclsr19__to_address_helperIT_EE6__callclsr3stdE7declvalIRKS8_EEEEESA_, symObjAddr: 0xB598, symBinAddr: 0x10000D01C, symSize: 0x24 }
  - { offsetInCU: 0x11B38, offset: 0x11B38, size: 0x8, addend: 0x0, symName: __ZNSt3__119__allocator_destroyB8ue170006INS_9allocatorINS_6vectorIfNS1_IfEEEEEENS_16reverse_iteratorINS6_IPS4_EEEES9_EEvRT_T0_T1_, symObjAddr: 0xB970, symBinAddr: 0x10000D3F4, symSize: 0x70 }
  - { offsetInCU: 0x11B9D, offset: 0x11B9D, size: 0x8, addend: 0x0, symName: __ZNSt3__1neB8ue170006INS_16reverse_iteratorIPNS_6vectorIfNS_9allocatorIfEEEEEES7_EEbRKNS1_IT_EERKNS1_IT0_EE, symObjAddr: 0xBA1C, symBinAddr: 0x10000D4A0, symSize: 0x60 }
  - { offsetInCU: 0x11BE9, offset: 0x11BE9, size: 0x8, addend: 0x0, symName: __ZNSt3__112__to_addressB8ue170006INS_16reverse_iteratorINS1_IPNS_6vectorIfNS_9allocatorIfEEEEEEEEvEEu7__decayIDTclsr19__to_address_helperIT_EE6__callclsr3stdE7declvalIRKS9_EEEEESB_, symObjAddr: 0xBA7C, symBinAddr: 0x10000D500, symSize: 0x24 }
  - { offsetInCU: 0x11C48, offset: 0x11C48, size: 0x8, addend: 0x0, symName: __ZNSt3__119__allocate_at_leastB8ue170006INS_9allocatorIP8MushroomEEEENS_19__allocation_resultINS_16allocator_traitsIT_E7pointerEEERS7_m, symObjAddr: 0xC938, symBinAddr: 0x10000E3BC, symSize: 0x40 }
  - { offsetInCU: 0x11C8B, offset: 0x11C8B, size: 0x8, addend: 0x0, symName: __ZNSt3__142__uninitialized_allocator_move_if_noexceptB8ue170006INS_9allocatorIP8MushroomEENS_16reverse_iteratorIPS3_EES7_S3_vEET1_RT_T0_SB_S8_, symObjAddr: 0xCAEC, symBinAddr: 0x10000E570, symSize: 0x78 }
  - { offsetInCU: 0x11D08, offset: 0x11D08, size: 0x8, addend: 0x0, symName: __ZNSt3__14swapB8ue170006IPP8MushroomEENS_9enable_ifIXaasr21is_move_constructibleIT_EE5valuesr18is_move_assignableIS5_EE5valueEvE4typeERS5_S8_, symObjAddr: 0xCBB0, symBinAddr: 0x10000E634, symSize: 0x3C }
  - { offsetInCU: 0x11D59, offset: 0x11D59, size: 0x8, addend: 0x0, symName: __ZNSt3__14moveB8ue170006INS_16reverse_iteratorIPP8MushroomEES5_EET0_T_S7_S6_, symObjAddr: 0xCC98, symBinAddr: 0x10000E71C, symSize: 0x78 }
  - { offsetInCU: 0x11DB3, offset: 0x11DB3, size: 0x8, addend: 0x0, symName: __ZNSt3__16__moveB8ue170006INS_17_ClassicAlgPolicyENS_16reverse_iteratorIPP8MushroomEES6_S6_EENS_4pairIT0_T2_EES8_T1_S9_, symObjAddr: 0xCD10, symBinAddr: 0x10000E794, symSize: 0x64 }
  - { offsetInCU: 0x11E1F, offset: 0x11E1F, size: 0x8, addend: 0x0, symName: __ZNSt3__123__dispatch_copy_or_moveB8ue170006INS_17_ClassicAlgPolicyENS_11__move_loopIS1_EENS_14__move_trivialENS_16reverse_iteratorIPP8MushroomEES9_S9_EENS_4pairIT2_T4_EESB_T3_SC_, symObjAddr: 0xCD74, symBinAddr: 0x10000E7F8, symSize: 0x64 }
  - { offsetInCU: 0x11E9D, offset: 0x11E9D, size: 0x8, addend: 0x0, symName: __ZNSt3__121__unwrap_and_dispatchB8ue170006INS_10__overloadINS_11__move_loopINS_17_ClassicAlgPolicyEEENS_14__move_trivialEEENS_16reverse_iteratorIPP8MushroomEESB_SB_Li0EEENS_4pairIT0_T2_EESD_T1_SE_, symObjAddr: 0xCDD8, symBinAddr: 0x10000E85C, symSize: 0x12C }
  - { offsetInCU: 0x11F2D, offset: 0x11F2D, size: 0x8, addend: 0x0, symName: __ZNSt3__114__unwrap_rangeB8ue170006INS_16reverse_iteratorIPP8MushroomEES5_EENS_4pairIT0_S7_EET_S9_, symObjAddr: 0xCF04, symBinAddr: 0x10000E988, symSize: 0x84 }
  - { offsetInCU: 0x1204D, offset: 0x1204D, size: 0x8, addend: 0x0, symName: __ZNSt3__113__unwrap_iterB8ue170006INS_16reverse_iteratorIPP8MushroomEENS_18__unwrap_iter_implIS5_Lb0EEELi0EEEDTclsrT0_8__unwrapclsr3stdE7declvalIT_EEEES9_, symObjAddr: 0xD028, symBinAddr: 0x10000EAAC, symSize: 0x44 }
  - { offsetInCU: 0x12091, offset: 0x12091, size: 0x8, addend: 0x0, symName: __ZNSt3__19make_pairB8ue170006INS_16reverse_iteratorIPP8MushroomEES5_EENS_4pairINS_18__unwrap_ref_decayIT_E4typeENS7_IT0_E4typeEEEOS8_OSB_, symObjAddr: 0xD06C, symBinAddr: 0x10000EAF0, symSize: 0x38 }
  - { offsetInCU: 0x120E0, offset: 0x120E0, size: 0x8, addend: 0x0, symName: __ZNSt3__114__rewrap_rangeB8ue170006INS_16reverse_iteratorIPP8MushroomEES5_EET_S6_T0_, symObjAddr: 0xD0A4, symBinAddr: 0x10000EB28, symSize: 0x5C }
  - { offsetInCU: 0x1212C, offset: 0x1212C, size: 0x8, addend: 0x0, symName: __ZNSt3__113__rewrap_iterB8ue170006INS_16reverse_iteratorIPP8MushroomEES5_NS_18__unwrap_iter_implIS5_Lb0EEEEET_S8_T0_, symObjAddr: 0xD100, symBinAddr: 0x10000EB84, symSize: 0x74 }
  - { offsetInCU: 0x12181, offset: 0x12181, size: 0x8, addend: 0x0, symName: __ZNSt3__1neB8ue170006IPP8MushroomS3_EEbRKNS_16reverse_iteratorIT_EERKNS4_IT0_EE, symObjAddr: 0xD174, symBinAddr: 0x10000EBF8, symSize: 0x48 }
  - { offsetInCU: 0x12239, offset: 0x12239, size: 0x8, addend: 0x0, symName: __ZNSt3__116__pad_and_outputB8ue170006IcNS_11char_traitsIcEEEENS_19ostreambuf_iteratorIT_T0_EES6_PKS4_S8_S8_RNS_8ios_baseES4_, symObjAddr: 0xD740, symBinAddr: 0x10000F1C4, symSize: 0x240 }
  - { offsetInCU: 0x12308, offset: 0x12308, size: 0x8, addend: 0x0, symName: __ZNSt3__112__to_addressB8ue170006IKcEEPT_S3_, symObjAddr: 0xDCA8, symBinAddr: 0x10000F72C, symSize: 0x14 }
  - { offsetInCU: 0x12370, offset: 0x12370, size: 0x8, addend: 0x0, symName: __ZNSt3__19use_facetB8ue170006INS_5ctypeIcEEEERKT_RKNS_6localeE, symObjAddr: 0xDF28, symBinAddr: 0x10000F9AC, symSize: 0x2C }
  - { offsetInCU: 0x1283D, offset: 0x1283D, size: 0x8, addend: 0x0, symName: __ZNSt3__118__constexpr_strlenB8ue170006EPKc, symObjAddr: 0xDFC0, symBinAddr: 0x10000FA44, symSize: 0x24 }
  - { offsetInCU: 0x12A6B, offset: 0x12A6B, size: 0x8, addend: 0x0, symName: __ZNSt3__119__allocate_at_leastB8ue170006INS_9allocatorImEEEENS_19__allocation_resultINS_16allocator_traitsIT_E7pointerEEERS5_m, symObjAddr: 0xEE00, symBinAddr: 0x100010884, symSize: 0x40 }
  - { offsetInCU: 0x12AAE, offset: 0x12AAE, size: 0x8, addend: 0x0, symName: __ZNSt3__16__copyB8ue170006INS_17_ClassicAlgPolicyENS_14__bit_iteratorINS_6vectorIbNS_9allocatorIbEEEELb0ELm0EEES7_S7_EENS_4pairIT0_T2_EES9_T1_SA_, symObjAddr: 0xEEBC, symBinAddr: 0x100010940, symSize: 0x88 }
  - { offsetInCU: 0x12B1D, offset: 0x12B1D, size: 0x8, addend: 0x0, symName: __ZNSt3__123__dispatch_copy_or_moveB8ue170006INS_17_ClassicAlgPolicyENS_11__copy_loopIS1_EENS_14__copy_trivialENS_14__bit_iteratorINS_6vectorIbNS_9allocatorIbEEEELb0ELm0EEESA_SA_EENS_4pairIT2_T4_EESC_T3_SD_, symObjAddr: 0xEFDC, symBinAddr: 0x100010A60, symSize: 0x88 }
  - { offsetInCU: 0x12B9E, offset: 0x12B9E, size: 0x8, addend: 0x0, symName: __ZNSt3__121__unwrap_and_dispatchB8ue170006INS_10__overloadINS_11__copy_loopINS_17_ClassicAlgPolicyEEENS_14__copy_trivialEEENS_14__bit_iteratorINS_6vectorIbNS_9allocatorIbEEEELb0ELm0EEESC_SC_Li0EEENS_4pairIT0_T2_EESE_T1_SF_, symObjAddr: 0xF064, symBinAddr: 0x100010AE8, symSize: 0x15C }
  - { offsetInCU: 0x12C31, offset: 0x12C31, size: 0x8, addend: 0x0, symName: __ZNSt3__114__unwrap_rangeB8ue170006INS_14__bit_iteratorINS_6vectorIbNS_9allocatorIbEEEELb0ELm0EEES6_EENS_4pairIT0_S8_EET_SA_, symObjAddr: 0xF1C0, symBinAddr: 0x100010C44, symSize: 0x8C }
  - { offsetInCU: 0x12DA5, offset: 0x12DA5, size: 0x8, addend: 0x0, symName: __ZNSt3__113__unwrap_iterB8ue170006INS_14__bit_iteratorINS_6vectorIbNS_9allocatorIbEEEELb0ELm0EEENS_18__unwrap_iter_implIS6_Lb0EEELi0EEEDTclsrT0_8__unwrapclsr3stdE7declvalIT_EEEESA_, symObjAddr: 0xF304, symBinAddr: 0x100010D88, symSize: 0x44 }
  - { offsetInCU: 0x12DEA, offset: 0x12DEA, size: 0x8, addend: 0x0, symName: __ZNSt3__19make_pairB8ue170006INS_14__bit_iteratorINS_6vectorIbNS_9allocatorIbEEEELb0ELm0EEES6_EENS_4pairINS_18__unwrap_ref_decayIT_E4typeENS8_IT0_E4typeEEEOS9_OSC_, symObjAddr: 0xF348, symBinAddr: 0x100010DCC, symSize: 0x40 }
  - { offsetInCU: 0x12E39, offset: 0x12E39, size: 0x8, addend: 0x0, symName: __ZNSt3__114__rewrap_rangeB8ue170006INS_14__bit_iteratorINS_6vectorIbNS_9allocatorIbEEEELb0ELm0EEES6_EET_S7_T0_, symObjAddr: 0xF388, symBinAddr: 0x100010E0C, symSize: 0x6C }
  - { offsetInCU: 0x12E87, offset: 0x12E87, size: 0x8, addend: 0x0, symName: __ZNSt3__113__rewrap_iterB8ue170006INS_14__bit_iteratorINS_6vectorIbNS_9allocatorIbEEEELb0ELm0EEES6_NS_18__unwrap_iter_implIS6_Lb0EEEEET_S9_T0_, symObjAddr: 0xF3F4, symBinAddr: 0x100010E78, symSize: 0x74 }
  - { offsetInCU: 0x12EDE, offset: 0x12EDE, size: 0x8, addend: 0x0, symName: __ZNSt3__1neB8ue170006ERKNS_14__bit_iteratorINS_6vectorIbNS_9allocatorIbEEEELb0ELm0EEES7_, symObjAddr: 0xF468, symBinAddr: 0x100010EEC, symSize: 0x34 }
  - { offsetInCU: 0x12F1B, offset: 0x12F1B, size: 0x8, addend: 0x0, symName: __ZNSt3__1eqB8ue170006ERKNS_14__bit_iteratorINS_6vectorIbNS_9allocatorIbEEEELb0ELm0EEES7_, symObjAddr: 0xF57C, symBinAddr: 0x100011000, symSize: 0x64 }
  - { offsetInCU: 0x12FA0, offset: 0x12FA0, size: 0x8, addend: 0x0, symName: __ZNSt3__14swapB8ue170006IPmEENS_9enable_ifIXaasr21is_move_constructibleIT_EE5valuesr18is_move_assignableIS3_EE5valueEvE4typeERS3_S6_, symObjAddr: 0xF804, symBinAddr: 0x100011288, symSize: 0x3C }
  - { offsetInCU: 0x12FF1, offset: 0x12FF1, size: 0x8, addend: 0x0, symName: __ZNSt3__14swapB8ue170006ImEENS_9enable_ifIXaasr21is_move_constructibleIT_EE5valuesr18is_move_assignableIS2_EE5valueEvE4typeERS2_S5_, symObjAddr: 0xF840, symBinAddr: 0x1000112C4, symSize: 0x3C }
  - { offsetInCU: 0x13042, offset: 0x13042, size: 0x8, addend: 0x0, symName: __ZNSt3__116__swap_allocatorB8ue170006INS_9allocatorImEEEEvRT_S4_NS_17integral_constantIbLb0EEE, symObjAddr: 0xF87C, symBinAddr: 0x100011300, symSize: 0x14 }
  - { offsetInCU: 0x136A6, offset: 0x136A6, size: 0x8, addend: 0x0, symName: __ZSt28__throw_bad_array_new_lengthB8ue170006v, symObjAddr: 0x60BC, symBinAddr: 0x100007B40, symSize: 0x34 }
  - { offsetInCU: 0x143D0, offset: 0x143D0, size: 0x8, addend: 0x0, symName: __ZNSt3__16vectorIP4NodeNS_9allocatorIS2_EEE26__swap_out_circular_bufferERNS_14__split_bufferIS2_RS4_EE, symObjAddr: 0x59D8, symBinAddr: 0x10000745C, symSize: 0x110 }
  - { offsetInCU: 0x1443E, offset: 0x1443E, size: 0x8, addend: 0x0, symName: __ZNSt3__16vectorINS0_IP4NodeNS_9allocatorIS2_EEEENS3_IS5_EEE26__swap_out_circular_bufferERNS_14__split_bufferIS5_RS6_EE, symObjAddr: 0x7A48, symBinAddr: 0x1000094CC, symSize: 0x110 }
  - { offsetInCU: 0x144CF, offset: 0x144CF, size: 0x8, addend: 0x0, symName: __ZNSt3__16vectorIfNS_9allocatorIfEEE26__swap_out_circular_bufferERNS_14__split_bufferIfRS2_EE, symObjAddr: 0x8F2C, symBinAddr: 0x10000A9B0, symSize: 0x110 }
  - { offsetInCU: 0x1453D, offset: 0x1453D, size: 0x8, addend: 0x0, symName: __ZNSt3__16vectorINS0_IfNS_9allocatorIfEEEENS1_IS3_EEE26__swap_out_circular_bufferERNS_14__split_bufferIS3_RS4_EE, symObjAddr: 0xACE8, symBinAddr: 0x10000C76C, symSize: 0x110 }
  - { offsetInCU: 0x145CE, offset: 0x145CE, size: 0x8, addend: 0x0, symName: __ZNSt3__16vectorIP8MushroomNS_9allocatorIS2_EEE26__swap_out_circular_bufferERNS_14__split_bufferIS2_RS4_EE, symObjAddr: 0xC5D8, symBinAddr: 0x10000E05C, symSize: 0x110 }
  - { offsetInCU: 0x1488D, offset: 0x1488D, size: 0x8, addend: 0x0, symName: __Z3powB8ue170006IfiENSt3__19enable_ifIXaasr3std13is_arithmeticIT_EE5valuesr3std13is_arithmeticIT0_EE5valueENS0_9__promoteIS2_S3_vEEE4type4typeES2_S3_, symObjAddr: 0x2A1C, symBinAddr: 0x1000044A0, symSize: 0x3C }
  - { offsetInCU: 0x16F41, offset: 0x16F41, size: 0x8, addend: 0x0, symName: __ZN3ANNC2Eif, symObjAddr: 0x0, symBinAddr: 0x100001A84, symSize: 0x680 }
  - { offsetInCU: 0x170D5, offset: 0x170D5, size: 0x8, addend: 0x0, symName: __ZNSt3__16vectorIP8MushroomNS_9allocatorIS2_EEEC1B8ue170006Ev, symObjAddr: 0x680, symBinAddr: 0x100002104, symSize: 0x2C }
  - { offsetInCU: 0x170FE, offset: 0x170FE, size: 0x8, addend: 0x0, symName: __ZNSt3__16vectorIP4NodeNS_9allocatorIS2_EEEC1B8ue170006Ev, symObjAddr: 0x6AC, symBinAddr: 0x100002130, symSize: 0x2C }
  - { offsetInCU: 0x17127, offset: 0x17127, size: 0x8, addend: 0x0, symName: __ZNSt3__16vectorINS0_IP4NodeNS_9allocatorIS2_EEEENS3_IS5_EEEC1B8ue170006Ev, symObjAddr: 0x6D8, symBinAddr: 0x10000215C, symSize: 0x2C }
  - { offsetInCU: 0x17150, offset: 0x17150, size: 0x8, addend: 0x0, symName: __ZNSt3__16vectorIfNS_9allocatorIfEEEC1B8ue170006Ev, symObjAddr: 0x704, symBinAddr: 0x100002188, symSize: 0x2C }
  - { offsetInCU: 0x17179, offset: 0x17179, size: 0x8, addend: 0x0, symName: __ZNSt3__16vectorINS0_IfNS_9allocatorIfEEEENS1_IS3_EEEC1B8ue170006Ev, symObjAddr: 0x730, symBinAddr: 0x1000021B4, symSize: 0x2C }
  - { offsetInCU: 0x171A1, offset: 0x171A1, size: 0x8, addend: 0x0, symName: __ZNSt3__16vectorIP8MushroomNS_9allocatorIS2_EEEaSB8ue170006EOS5_, symObjAddr: 0x75C, symBinAddr: 0x1000021E0, symSize: 0x34 }
  - { offsetInCU: 0x171D7, offset: 0x171D7, size: 0x8, addend: 0x0, symName: __ZNSt3__16vectorIP8MushroomNS_9allocatorIS2_EEED1B8ue170006Ev, symObjAddr: 0x790, symBinAddr: 0x100002214, symSize: 0x2C }
  - { offsetInCU: 0x171FF, offset: 0x171FF, size: 0x8, addend: 0x0, symName: __ZNSt3__16vectorIP4NodeNS_9allocatorIS2_EEE9push_backB8ue170006EOS2_, symObjAddr: 0x7BC, symBinAddr: 0x100002240, symSize: 0x6C }
  - { offsetInCU: 0x17234, offset: 0x17234, size: 0x8, addend: 0x0, symName: __ZNSt3__16vectorINS0_IP4NodeNS_9allocatorIS2_EEEENS3_IS5_EEE9push_backB8ue170006ERKS5_, symObjAddr: 0x828, symBinAddr: 0x1000022AC, symSize: 0x6C }
  - { offsetInCU: 0x1726A, offset: 0x1726A, size: 0x8, addend: 0x0, symName: __ZNSt3__16vectorIP4NodeNS_9allocatorIS2_EEED1B8ue170006Ev, symObjAddr: 0x894, symBinAddr: 0x100002318, symSize: 0x2C }
  - { offsetInCU: 0x17292, offset: 0x17292, size: 0x8, addend: 0x0, symName: __ZNSt3__16vectorIfNS_9allocatorIfEEE9push_backB8ue170006EOf, symObjAddr: 0x8C0, symBinAddr: 0x100002344, symSize: 0x6C }
  - { offsetInCU: 0x172C8, offset: 0x172C8, size: 0x8, addend: 0x0, symName: __ZN3ANN14getRandomFloatEv, symObjAddr: 0x92C, symBinAddr: 0x1000023B0, symSize: 0x3C }
  - { offsetInCU: 0x172EF, offset: 0x172EF, size: 0x8, addend: 0x0, symName: __ZNSt3__16vectorINS0_IfNS_9allocatorIfEEEENS1_IS3_EEE9push_backB8ue170006ERKS3_, symObjAddr: 0x968, symBinAddr: 0x1000023EC, symSize: 0x6C }
  - { offsetInCU: 0x17325, offset: 0x17325, size: 0x8, addend: 0x0, symName: __ZNSt3__16vectorIfNS_9allocatorIfEEED1B8ue170006Ev, symObjAddr: 0x9D4, symBinAddr: 0x100002458, symSize: 0x2C }
  - { offsetInCU: 0x1734E, offset: 0x1734E, size: 0x8, addend: 0x0, symName: __ZNSt3__16vectorIfNS_9allocatorIfEEEC1Em, symObjAddr: 0xA00, symBinAddr: 0x100002484, symSize: 0x34 }
  - { offsetInCU: 0x17387, offset: 0x17387, size: 0x8, addend: 0x0, symName: __ZNSt3__16vectorIfNS_9allocatorIfEEEaSB8ue170006EOS3_, symObjAddr: 0xA34, symBinAddr: 0x1000024B8, symSize: 0x34 }
  - { offsetInCU: 0x173BD, offset: 0x173BD, size: 0x8, addend: 0x0, symName: __ZNSt3__16vectorIfNS_9allocatorIfEEEixB8ue170006Em, symObjAddr: 0xA68, symBinAddr: 0x1000024EC, symSize: 0x24 }
  - { offsetInCU: 0x173F3, offset: 0x173F3, size: 0x8, addend: 0x0, symName: __ZNSt3__16vectorINS0_IfNS_9allocatorIfEEEENS1_IS3_EEED1B8ue170006Ev, symObjAddr: 0xA8C, symBinAddr: 0x100002510, symSize: 0x2C }
  - { offsetInCU: 0x1741C, offset: 0x1741C, size: 0x8, addend: 0x0, symName: __ZNSt3__16vectorINS0_IP4NodeNS_9allocatorIS2_EEEENS3_IS5_EEED1B8ue170006Ev, symObjAddr: 0xAB8, symBinAddr: 0x10000253C, symSize: 0x2C }
  - { offsetInCU: 0x17445, offset: 0x17445, size: 0x8, addend: 0x0, symName: __ZN3ANNC1Eif, symObjAddr: 0xAE4, symBinAddr: 0x100002568, symSize: 0x3C }
  - { offsetInCU: 0x1748C, offset: 0x1748C, size: 0x8, addend: 0x0, symName: __ZN3ANND2Ev, symObjAddr: 0xB20, symBinAddr: 0x1000025A4, symSize: 0x80 }
  - { offsetInCU: 0x174B7, offset: 0x174B7, size: 0x8, addend: 0x0, symName: __ZN3ANND1Ev, symObjAddr: 0xBA0, symBinAddr: 0x100002624, symSize: 0x2C }
  - { offsetInCU: 0x174E2, offset: 0x174E2, size: 0x8, addend: 0x0, symName: __ZN3ANN18addMushroomToTrainEP8Mushroom, symObjAddr: 0xBCC, symBinAddr: 0x100002650, symSize: 0x30 }
  - { offsetInCU: 0x17516, offset: 0x17516, size: 0x8, addend: 0x0, symName: __ZNSt3__16vectorIP8MushroomNS_9allocatorIS2_EEE9push_backB8ue170006ERKS2_, symObjAddr: 0xBFC, symBinAddr: 0x100002680, symSize: 0x6C }
  - { offsetInCU: 0x1754C, offset: 0x1754C, size: 0x8, addend: 0x0, symName: __ZN3ANN17addMushroomToTestEP8Mushroom, symObjAddr: 0xC68, symBinAddr: 0x1000026EC, symSize: 0x34 }
  - { offsetInCU: 0x17581, offset: 0x17581, size: 0x8, addend: 0x0, symName: __ZN3ANN5printEv, symObjAddr: 0xC9C, symBinAddr: 0x100002720, symSize: 0xA4 }
  - { offsetInCU: 0x175A8, offset: 0x175A8, size: 0x8, addend: 0x0, symName: __ZNSt3__113basic_ostreamIcNS_11char_traitsIcEEElsB8ue170006EPFRS3_S4_E, symObjAddr: 0xD88, symBinAddr: 0x10000280C, symSize: 0x2C }
  - { offsetInCU: 0x175DB, offset: 0x175DB, size: 0x8, addend: 0x0, symName: __ZNKSt3__16vectorIP8MushroomNS_9allocatorIS2_EEE4sizeB8ue170006Ev, symObjAddr: 0xE0C, symBinAddr: 0x100002890, symSize: 0x28 }
  - { offsetInCU: 0x17600, offset: 0x17600, size: 0x8, addend: 0x0, symName: __ZN3ANN5trainEv, symObjAddr: 0xE34, symBinAddr: 0x1000028B8, symSize: 0x2C4 }
  - { offsetInCU: 0x17670, offset: 0x17670, size: 0x8, addend: 0x0, symName: __ZNSt3__114basic_ofstreamIcNS_11char_traitsIcEEEC1EPKcj, symObjAddr: 0x10F8, symBinAddr: 0x100002B7C, symSize: 0x16C }
  - { offsetInCU: 0x176B9, offset: 0x176B9, size: 0x8, addend: 0x0, symName: __ZN3ANN11trainHelperEP8MushroomRNSt3__114basic_ofstreamIcNS2_11char_traitsIcEEEE, symObjAddr: 0x1264, symBinAddr: 0x100002CE8, symSize: 0x480 }
  - { offsetInCU: 0x177C6, offset: 0x177C6, size: 0x8, addend: 0x0, symName: __ZNSt3__16vectorIP8MushroomNS_9allocatorIS2_EEEixB8ue170006Em, symObjAddr: 0x16E4, symBinAddr: 0x100003168, symSize: 0x24 }
  - { offsetInCU: 0x177FC, offset: 0x177FC, size: 0x8, addend: 0x0, symName: __ZN3ANN13calculateLossEv, symObjAddr: 0x1708, symBinAddr: 0x10000318C, symSize: 0x134 }
  - { offsetInCU: 0x178B4, offset: 0x178B4, size: 0x8, addend: 0x0, symName: __ZN3ANN4testEv, symObjAddr: 0x183C, symBinAddr: 0x1000032C0, symSize: 0x7F4 }
  - { offsetInCU: 0x17A26, offset: 0x17A26, size: 0x8, addend: 0x0, symName: __ZNSt3__114basic_ofstreamIcNS_11char_traitsIcEEED1Ev, symObjAddr: 0x2030, symBinAddr: 0x100003AB4, symSize: 0x40 }
  - { offsetInCU: 0x17A52, offset: 0x17A52, size: 0x8, addend: 0x0, symName: __ZNSt3__16vectorIbNS_9allocatorIbEEEC1B8ue170006Ev, symObjAddr: 0x2070, symBinAddr: 0x100003AF4, symSize: 0x2C }
  - { offsetInCU: 0x17A7D, offset: 0x17A7D, size: 0x8, addend: 0x0, symName: __ZN3ANN11feedforwardEP8Mushroomb, symObjAddr: 0x209C, symBinAddr: 0x100003B20, symSize: 0x388 }
  - { offsetInCU: 0x17BE1, offset: 0x17BE1, size: 0x8, addend: 0x0, symName: __ZN3ANN8classifyEP8Mushroom, symObjAddr: 0x2424, symBinAddr: 0x100003EA8, symSize: 0x7C }
  - { offsetInCU: 0x17C32, offset: 0x17C32, size: 0x8, addend: 0x0, symName: __ZNSt3__113basic_ostreamIcNS_11char_traitsIcEEElsB8ue170006EPFRNS_8ios_baseES5_E, symObjAddr: 0x24A0, symBinAddr: 0x100003F24, symSize: 0x40 }
  - { offsetInCU: 0x17C64, offset: 0x17C64, size: 0x8, addend: 0x0, symName: __ZNSt3__16vectorIbNS_9allocatorIbEEE9push_backERKb, symObjAddr: 0x2510, symBinAddr: 0x100003F94, symSize: 0xA4 }
  - { offsetInCU: 0x17C99, offset: 0x17C99, size: 0x8, addend: 0x0, symName: __ZNSt3__16vectorIfNS_9allocatorIfEEE9push_backB8ue170006ERKf, symObjAddr: 0x25B4, symBinAddr: 0x100004038, symSize: 0x6C }
  - { offsetInCU: 0x17CCF, offset: 0x17CCF, size: 0x8, addend: 0x0, symName: __ZN3ANN5statsERKNSt3__16vectorIbNS0_9allocatorIbEEEES6_, symObjAddr: 0x2620, symBinAddr: 0x1000040A4, symSize: 0x3D4 }
  - { offsetInCU: 0x17DAB, offset: 0x17DAB, size: 0x8, addend: 0x0, symName: __ZNKSt3__16vectorIfNS_9allocatorIfEEE4sizeB8ue170006Ev, symObjAddr: 0x29F4, symBinAddr: 0x100004478, symSize: 0x28 }
  - { offsetInCU: 0x17DCF, offset: 0x17DCF, size: 0x8, addend: 0x0, symName: __Z4sqrtB8ue170006f, symObjAddr: 0x2A58, symBinAddr: 0x1000044DC, symSize: 0x18 }
  - { offsetInCU: 0x17DFE, offset: 0x17DFE, size: 0x8, addend: 0x0, symName: __ZN3ANN12outputsToCSVEv, symObjAddr: 0x2A70, symBinAddr: 0x1000044F4, symSize: 0x26C }
  - { offsetInCU: 0x17E95, offset: 0x17E95, size: 0x8, addend: 0x0, symName: __ZNSt3__16vectorIbNS_9allocatorIbEEED1B8ue170006Ev, symObjAddr: 0x2CDC, symBinAddr: 0x100004760, symSize: 0x2C }
  - { offsetInCU: 0x17EBE, offset: 0x17EBE, size: 0x8, addend: 0x0, symName: __ZN3ANN9visualizeEv, symObjAddr: 0x2D08, symBinAddr: 0x10000478C, symSize: 0x178 }
  - { offsetInCU: 0x17F1F, offset: 0x17F1F, size: 0x8, addend: 0x0, symName: __ZNSt3__16vectorINS0_IfNS_9allocatorIfEEEENS1_IS3_EEEixB8ue170006Em, symObjAddr: 0x2EB4, symBinAddr: 0x100004938, symSize: 0x2C }
  - { offsetInCU: 0x17F55, offset: 0x17F55, size: 0x8, addend: 0x0, symName: __ZN3ANN7sigmoidEf, symObjAddr: 0x2EE0, symBinAddr: 0x100004964, symSize: 0x3C }
  - { offsetInCU: 0x17F8C, offset: 0x17F8C, size: 0x8, addend: 0x0, symName: __ZNSt3__16vectorIP4NodeNS_9allocatorIS2_EEEixB8ue170006Em, symObjAddr: 0x2F1C, symBinAddr: 0x1000049A0, symSize: 0x24 }
  - { offsetInCU: 0x17FC2, offset: 0x17FC2, size: 0x8, addend: 0x0, symName: __ZNKSt3__16vectorINS0_IP4NodeNS_9allocatorIS2_EEEENS3_IS5_EEE4sizeB8ue170006Ev, symObjAddr: 0x2F40, symBinAddr: 0x1000049C4, symSize: 0x28 }
  - { offsetInCU: 0x17FE7, offset: 0x17FE7, size: 0x8, addend: 0x0, symName: __ZNSt3__16vectorINS0_IP4NodeNS_9allocatorIS2_EEEENS3_IS5_EEEixB8ue170006Em, symObjAddr: 0x2F68, symBinAddr: 0x1000049EC, symSize: 0x2C }
  - { offsetInCU: 0x1801D, offset: 0x1801D, size: 0x8, addend: 0x0, symName: __ZNSt3__16vectorINS0_IP4NodeNS_9allocatorIS2_EEEENS3_IS5_EEE4backB8ue170006Ev, symObjAddr: 0x2F94, symBinAddr: 0x100004A18, symSize: 0x1C }
  - { offsetInCU: 0x18042, offset: 0x18042, size: 0x8, addend: 0x0, symName: __ZN3ANN17sigmoidDerivativeEf, symObjAddr: 0x2FB0, symBinAddr: 0x100004A34, symSize: 0x54 }
  - { offsetInCU: 0x18078, offset: 0x18078, size: 0x8, addend: 0x0, symName: __Z3expB8ue170006f, symObjAddr: 0x3004, symBinAddr: 0x100004A88, symSize: 0x24 }
  - { offsetInCU: 0x180A7, offset: 0x180A7, size: 0x8, addend: 0x0, symName: __ZN3ANN18getIndexOfMushroomEP8Mushroom, symObjAddr: 0x3028, symBinAddr: 0x100004AAC, symSize: 0xA8 }
  - { offsetInCU: 0x180FB, offset: 0x180FB, size: 0x8, addend: 0x0, symName: __ZNSt3__16vectorIP8MushroomNS_9allocatorIS2_EEE5beginB8ue170006Ev, symObjAddr: 0x30D0, symBinAddr: 0x100004B54, symSize: 0x30 }
  - { offsetInCU: 0x18121, offset: 0x18121, size: 0x8, addend: 0x0, symName: __ZNSt3__16vectorIP8MushroomNS_9allocatorIS2_EEE3endB8ue170006Ev, symObjAddr: 0x3100, symBinAddr: 0x100004B84, symSize: 0x30 }
  - { offsetInCU: 0x18148, offset: 0x18148, size: 0x8, addend: 0x0, symName: __ZNKSt3__111__wrap_iterIPP8MushroomEdeB8ue170006Ev, symObjAddr: 0x3164, symBinAddr: 0x100004BE8, symSize: 0x18 }
  - { offsetInCU: 0x1816C, offset: 0x1816C, size: 0x8, addend: 0x0, symName: __Z3logB8ue170006f, symObjAddr: 0x317C, symBinAddr: 0x100004C00, symSize: 0x24 }
  - { offsetInCU: 0x1819B, offset: 0x1819B, size: 0x8, addend: 0x0, symName: __ZNSt3__111__wrap_iterIPP8MushroomEppB8ue170006Ev, symObjAddr: 0x31A0, symBinAddr: 0x100004C24, symSize: 0x20 }
  - { offsetInCU: 0x181C0, offset: 0x181C0, size: 0x8, addend: 0x0, symName: __ZNKSt3__16vectorIbNS_9allocatorIbEEE4sizeB8ue170006Ev, symObjAddr: 0x31C0, symBinAddr: 0x100004C44, symSize: 0x18 }
  - { offsetInCU: 0x181E5, offset: 0x181E5, size: 0x8, addend: 0x0, symName: __ZNKSt3__16vectorIbNS_9allocatorIbEEEixB8ue170006Em, symObjAddr: 0x31D8, symBinAddr: 0x100004C5C, symSize: 0x3C }
  - { offsetInCU: 0x18219, offset: 0x18219, size: 0x8, addend: 0x0, symName: __ZNKSt3__121__bit_const_referenceINS_6vectorIbNS_9allocatorIbEEEEEcvbB8ue170006Ev, symObjAddr: 0x3214, symBinAddr: 0x100004C98, symSize: 0x2C }
  - { offsetInCU: 0x1823D, offset: 0x1823D, size: 0x8, addend: 0x0, symName: __ZNSt3__114basic_ofstreamIcNS_11char_traitsIcEEE5closeEv, symObjAddr: 0x3240, symBinAddr: 0x100004CC4, symSize: 0x58 }
  - { offsetInCU: 0x18264, offset: 0x18264, size: 0x8, addend: 0x0, symName: __ZNSt3__114basic_ofstreamIcNS_11char_traitsIcEEED2Ev, symObjAddr: 0x3298, symBinAddr: 0x100004D1C, symSize: 0x64 }
  - { offsetInCU: 0x1829C, offset: 0x1829C, size: 0x8, addend: 0x0, symName: __ZTv0_n24_NSt3__114basic_ofstreamIcNS_11char_traitsIcEEED1Ev, symObjAddr: 0x32FC, symBinAddr: 0x100004D80, symSize: 0x28 }
  - { offsetInCU: 0x182B2, offset: 0x182B2, size: 0x8, addend: 0x0, symName: __ZNSt3__18ios_base4setfB8ue170006Ejj, symObjAddr: 0x3324, symBinAddr: 0x100004DA8, symSize: 0x5C }
  - { offsetInCU: 0x18306, offset: 0x18306, size: 0x8, addend: 0x0, symName: __ZNSt3__18ios_base6unsetfB8ue170006Ej, symObjAddr: 0x3380, symBinAddr: 0x100004E04, symSize: 0x28 }
  - { offsetInCU: 0x1833C, offset: 0x1833C, size: 0x8, addend: 0x0, symName: __ZNKSt3__111__wrap_iterIPP8MushroomE4baseB8ue170006Ev, symObjAddr: 0x33F0, symBinAddr: 0x100004E74, symSize: 0x18 }
  - { offsetInCU: 0x18361, offset: 0x18361, size: 0x8, addend: 0x0, symName: __ZNSt3__16vectorIP8MushroomNS_9allocatorIS2_EEEC2B8ue170006Ev, symObjAddr: 0x3408, symBinAddr: 0x100004E8C, symSize: 0x4C }
  - { offsetInCU: 0x18394, offset: 0x18394, size: 0x8, addend: 0x0, symName: __ZNSt3__117__compressed_pairIPP8MushroomNS_9allocatorIS2_EEEC1B8ue170006IDnNS_18__default_init_tagEEEOT_OT0_, symObjAddr: 0x3454, symBinAddr: 0x100004ED8, symSize: 0x3C }
  - { offsetInCU: 0x183EB, offset: 0x183EB, size: 0x8, addend: 0x0, symName: __ZNSt3__117__compressed_pairIPP8MushroomNS_9allocatorIS2_EEEC2B8ue170006IDnNS_18__default_init_tagEEEOT_OT0_, symObjAddr: 0x349C, symBinAddr: 0x100004F20, symSize: 0x40 }
  - { offsetInCU: 0x18442, offset: 0x18442, size: 0x8, addend: 0x0, symName: __ZNSt3__122__compressed_pair_elemIPP8MushroomLi0ELb0EEC2B8ue170006IDnvEEOT_, symObjAddr: 0x34DC, symBinAddr: 0x100004F60, symSize: 0x1C }
  - { offsetInCU: 0x18483, offset: 0x18483, size: 0x8, addend: 0x0, symName: __ZNSt3__122__compressed_pair_elemINS_9allocatorIP8MushroomEELi1ELb1EEC2B8ue170006ENS_18__default_init_tagE, symObjAddr: 0x34F8, symBinAddr: 0x100004F7C, symSize: 0x2C }
  - { offsetInCU: 0x184B6, offset: 0x184B6, size: 0x8, addend: 0x0, symName: __ZNSt3__19allocatorIP8MushroomEC2B8ue170006Ev, symObjAddr: 0x3524, symBinAddr: 0x100004FA8, symSize: 0x2C }
  - { offsetInCU: 0x184DF, offset: 0x184DF, size: 0x8, addend: 0x0, symName: __ZNSt3__116__non_trivial_ifILb1ENS_9allocatorIP8MushroomEEEC2B8ue170006Ev, symObjAddr: 0x3550, symBinAddr: 0x100004FD4, symSize: 0x14 }
  - { offsetInCU: 0x18508, offset: 0x18508, size: 0x8, addend: 0x0, symName: __ZNSt3__16vectorIP4NodeNS_9allocatorIS2_EEEC2B8ue170006Ev, symObjAddr: 0x3564, symBinAddr: 0x100004FE8, symSize: 0x4C }
  - { offsetInCU: 0x18531, offset: 0x18531, size: 0x8, addend: 0x0, symName: __ZNSt3__117__compressed_pairIPP4NodeNS_9allocatorIS2_EEEC1B8ue170006IDnNS_18__default_init_tagEEEOT_OT0_, symObjAddr: 0x35B0, symBinAddr: 0x100005034, symSize: 0x3C }
  - { offsetInCU: 0x18588, offset: 0x18588, size: 0x8, addend: 0x0, symName: __ZNSt3__117__compressed_pairIPP4NodeNS_9allocatorIS2_EEEC2B8ue170006IDnNS_18__default_init_tagEEEOT_OT0_, symObjAddr: 0x35EC, symBinAddr: 0x100005070, symSize: 0x40 }
  - { offsetInCU: 0x185DF, offset: 0x185DF, size: 0x8, addend: 0x0, symName: __ZNSt3__122__compressed_pair_elemIPP4NodeLi0ELb0EEC2B8ue170006IDnvEEOT_, symObjAddr: 0x362C, symBinAddr: 0x1000050B0, symSize: 0x1C }
  - { offsetInCU: 0x18620, offset: 0x18620, size: 0x8, addend: 0x0, symName: __ZNSt3__122__compressed_pair_elemINS_9allocatorIP4NodeEELi1ELb1EEC2B8ue170006ENS_18__default_init_tagE, symObjAddr: 0x3648, symBinAddr: 0x1000050CC, symSize: 0x2C }
  - { offsetInCU: 0x18653, offset: 0x18653, size: 0x8, addend: 0x0, symName: __ZNSt3__19allocatorIP4NodeEC2B8ue170006Ev, symObjAddr: 0x3674, symBinAddr: 0x1000050F8, symSize: 0x2C }
  - { offsetInCU: 0x1867C, offset: 0x1867C, size: 0x8, addend: 0x0, symName: __ZNSt3__116__non_trivial_ifILb1ENS_9allocatorIP4NodeEEEC2B8ue170006Ev, symObjAddr: 0x36A0, symBinAddr: 0x100005124, symSize: 0x14 }
  - { offsetInCU: 0x186A5, offset: 0x186A5, size: 0x8, addend: 0x0, symName: __ZNSt3__16vectorINS0_IP4NodeNS_9allocatorIS2_EEEENS3_IS5_EEEC2B8ue170006Ev, symObjAddr: 0x36B4, symBinAddr: 0x100005138, symSize: 0x4C }
  - { offsetInCU: 0x186CE, offset: 0x186CE, size: 0x8, addend: 0x0, symName: __ZNSt3__117__compressed_pairIPNS_6vectorIP4NodeNS_9allocatorIS3_EEEENS4_IS6_EEEC1B8ue170006IDnNS_18__default_init_tagEEEOT_OT0_, symObjAddr: 0x3700, symBinAddr: 0x100005184, symSize: 0x3C }
  - { offsetInCU: 0x18725, offset: 0x18725, size: 0x8, addend: 0x0, symName: __ZNSt3__117__compressed_pairIPNS_6vectorIP4NodeNS_9allocatorIS3_EEEENS4_IS6_EEEC2B8ue170006IDnNS_18__default_init_tagEEEOT_OT0_, symObjAddr: 0x373C, symBinAddr: 0x1000051C0, symSize: 0x40 }
  - { offsetInCU: 0x1877C, offset: 0x1877C, size: 0x8, addend: 0x0, symName: __ZNSt3__122__compressed_pair_elemIPNS_6vectorIP4NodeNS_9allocatorIS3_EEEELi0ELb0EEC2B8ue170006IDnvEEOT_, symObjAddr: 0x377C, symBinAddr: 0x100005200, symSize: 0x1C }
  - { offsetInCU: 0x187BD, offset: 0x187BD, size: 0x8, addend: 0x0, symName: __ZNSt3__122__compressed_pair_elemINS_9allocatorINS_6vectorIP4NodeNS1_IS4_EEEEEELi1ELb1EEC2B8ue170006ENS_18__default_init_tagE, symObjAddr: 0x3798, symBinAddr: 0x10000521C, symSize: 0x2C }
  - { offsetInCU: 0x187F0, offset: 0x187F0, size: 0x8, addend: 0x0, symName: __ZNSt3__19allocatorINS_6vectorIP4NodeNS0_IS3_EEEEEC2B8ue170006Ev, symObjAddr: 0x37C4, symBinAddr: 0x100005248, symSize: 0x2C }
  - { offsetInCU: 0x18819, offset: 0x18819, size: 0x8, addend: 0x0, symName: __ZNSt3__116__non_trivial_ifILb1ENS_9allocatorINS_6vectorIP4NodeNS1_IS4_EEEEEEEC2B8ue170006Ev, symObjAddr: 0x37F0, symBinAddr: 0x100005274, symSize: 0x14 }
  - { offsetInCU: 0x18842, offset: 0x18842, size: 0x8, addend: 0x0, symName: __ZNSt3__16vectorIfNS_9allocatorIfEEEC2B8ue170006Ev, symObjAddr: 0x3804, symBinAddr: 0x100005288, symSize: 0x4C }
  - { offsetInCU: 0x1886B, offset: 0x1886B, size: 0x8, addend: 0x0, symName: __ZNSt3__117__compressed_pairIPfNS_9allocatorIfEEEC1B8ue170006IDnNS_18__default_init_tagEEEOT_OT0_, symObjAddr: 0x3850, symBinAddr: 0x1000052D4, symSize: 0x3C }
  - { offsetInCU: 0x188C2, offset: 0x188C2, size: 0x8, addend: 0x0, symName: __ZNSt3__117__compressed_pairIPfNS_9allocatorIfEEEC2B8ue170006IDnNS_18__default_init_tagEEEOT_OT0_, symObjAddr: 0x388C, symBinAddr: 0x100005310, symSize: 0x40 }
  - { offsetInCU: 0x18919, offset: 0x18919, size: 0x8, addend: 0x0, symName: __ZNSt3__122__compressed_pair_elemIPfLi0ELb0EEC2B8ue170006IDnvEEOT_, symObjAddr: 0x38CC, symBinAddr: 0x100005350, symSize: 0x1C }
  - { offsetInCU: 0x1895A, offset: 0x1895A, size: 0x8, addend: 0x0, symName: __ZNSt3__122__compressed_pair_elemINS_9allocatorIfEELi1ELb1EEC2B8ue170006ENS_18__default_init_tagE, symObjAddr: 0x38E8, symBinAddr: 0x10000536C, symSize: 0x2C }
  - { offsetInCU: 0x1898D, offset: 0x1898D, size: 0x8, addend: 0x0, symName: __ZNSt3__19allocatorIfEC2B8ue170006Ev, symObjAddr: 0x3914, symBinAddr: 0x100005398, symSize: 0x2C }
  - { offsetInCU: 0x189B6, offset: 0x189B6, size: 0x8, addend: 0x0, symName: __ZNSt3__116__non_trivial_ifILb1ENS_9allocatorIfEEEC2B8ue170006Ev, symObjAddr: 0x3940, symBinAddr: 0x1000053C4, symSize: 0x14 }
  - { offsetInCU: 0x189DF, offset: 0x189DF, size: 0x8, addend: 0x0, symName: __ZNSt3__16vectorINS0_IfNS_9allocatorIfEEEENS1_IS3_EEEC2B8ue170006Ev, symObjAddr: 0x3954, symBinAddr: 0x1000053D8, symSize: 0x4C }
  - { offsetInCU: 0x18A08, offset: 0x18A08, size: 0x8, addend: 0x0, symName: __ZNSt3__117__compressed_pairIPNS_6vectorIfNS_9allocatorIfEEEENS2_IS4_EEEC1B8ue170006IDnNS_18__default_init_tagEEEOT_OT0_, symObjAddr: 0x39A0, symBinAddr: 0x100005424, symSize: 0x3C }
  - { offsetInCU: 0x18A5F, offset: 0x18A5F, size: 0x8, addend: 0x0, symName: __ZNSt3__117__compressed_pairIPNS_6vectorIfNS_9allocatorIfEEEENS2_IS4_EEEC2B8ue170006IDnNS_18__default_init_tagEEEOT_OT0_, symObjAddr: 0x39DC, symBinAddr: 0x100005460, symSize: 0x40 }
  - { offsetInCU: 0x18AB6, offset: 0x18AB6, size: 0x8, addend: 0x0, symName: __ZNSt3__122__compressed_pair_elemIPNS_6vectorIfNS_9allocatorIfEEEELi0ELb0EEC2B8ue170006IDnvEEOT_, symObjAddr: 0x3A1C, symBinAddr: 0x1000054A0, symSize: 0x1C }
  - { offsetInCU: 0x18AF7, offset: 0x18AF7, size: 0x8, addend: 0x0, symName: __ZNSt3__122__compressed_pair_elemINS_9allocatorINS_6vectorIfNS1_IfEEEEEELi1ELb1EEC2B8ue170006ENS_18__default_init_tagE, symObjAddr: 0x3A38, symBinAddr: 0x1000054BC, symSize: 0x2C }
  - { offsetInCU: 0x18B2A, offset: 0x18B2A, size: 0x8, addend: 0x0, symName: __ZNSt3__19allocatorINS_6vectorIfNS0_IfEEEEEC2B8ue170006Ev, symObjAddr: 0x3A64, symBinAddr: 0x1000054E8, symSize: 0x2C }
  - { offsetInCU: 0x18B53, offset: 0x18B53, size: 0x8, addend: 0x0, symName: __ZNSt3__116__non_trivial_ifILb1ENS_9allocatorINS_6vectorIfNS1_IfEEEEEEEC2B8ue170006Ev, symObjAddr: 0x3A90, symBinAddr: 0x100005514, symSize: 0x14 }
  - { offsetInCU: 0x18B7C, offset: 0x18B7C, size: 0x8, addend: 0x0, symName: __ZNSt3__16vectorIP8MushroomNS_9allocatorIS2_EEED2B8ue170006Ev, symObjAddr: 0x3AA4, symBinAddr: 0x100005528, symSize: 0x44 }
  - { offsetInCU: 0x18BA5, offset: 0x18BA5, size: 0x8, addend: 0x0, symName: __ZNSt3__16vectorIP8MushroomNS_9allocatorIS2_EEE16__destroy_vectorC1B8ue170006ERS5_, symObjAddr: 0x3AE8, symBinAddr: 0x10000556C, symSize: 0x34 }
  - { offsetInCU: 0x18BDD, offset: 0x18BDD, size: 0x8, addend: 0x0, symName: __ZNSt3__16vectorIP8MushroomNS_9allocatorIS2_EEE16__destroy_vectorclB8ue170006Ev, symObjAddr: 0x3B1C, symBinAddr: 0x1000055A0, symSize: 0x90 }
  - { offsetInCU: 0x18C02, offset: 0x18C02, size: 0x8, addend: 0x0, symName: __ZNSt3__16vectorIP8MushroomNS_9allocatorIS2_EEE16__destroy_vectorC2B8ue170006ERS5_, symObjAddr: 0x3BAC, symBinAddr: 0x100005630, symSize: 0x20 }
  - { offsetInCU: 0x18C3A, offset: 0x18C3A, size: 0x8, addend: 0x0, symName: __ZNSt3__16vectorIP8MushroomNS_9allocatorIS2_EEE7__clearB8ue170006Ev, symObjAddr: 0x3BCC, symBinAddr: 0x100005650, symSize: 0x28 }
  - { offsetInCU: 0x18C5F, offset: 0x18C5F, size: 0x8, addend: 0x0, symName: __ZNKSt3__16vectorIP8MushroomNS_9allocatorIS2_EEE17__annotate_deleteB8ue170006Ev, symObjAddr: 0x3BF4, symBinAddr: 0x100005678, symSize: 0xB8 }
  - { offsetInCU: 0x18C84, offset: 0x18C84, size: 0x8, addend: 0x0, symName: __ZNSt3__116allocator_traitsINS_9allocatorIP8MushroomEEE10deallocateB8ue170006ERS4_PS3_m, symObjAddr: 0x3CAC, symBinAddr: 0x100005730, symSize: 0x34 }
  - { offsetInCU: 0x18CC6, offset: 0x18CC6, size: 0x8, addend: 0x0, symName: __ZNSt3__16vectorIP8MushroomNS_9allocatorIS2_EEE7__allocB8ue170006Ev, symObjAddr: 0x3CE0, symBinAddr: 0x100005764, symSize: 0x28 }
  - { offsetInCU: 0x18CEB, offset: 0x18CEB, size: 0x8, addend: 0x0, symName: __ZNKSt3__16vectorIP8MushroomNS_9allocatorIS2_EEE8capacityB8ue170006Ev, symObjAddr: 0x3D08, symBinAddr: 0x10000578C, symSize: 0x40 }
  - { offsetInCU: 0x18D10, offset: 0x18D10, size: 0x8, addend: 0x0, symName: __ZNSt3__16vectorIP8MushroomNS_9allocatorIS2_EEE22__base_destruct_at_endB8ue170006EPS2_, symObjAddr: 0x3D48, symBinAddr: 0x1000057CC, symSize: 0x8C }
  - { offsetInCU: 0x18D53, offset: 0x18D53, size: 0x8, addend: 0x0, symName: __ZNSt3__116allocator_traitsINS_9allocatorIP8MushroomEEE7destroyB8ue170006IS3_vEEvRS4_PT_, symObjAddr: 0x3DD4, symBinAddr: 0x100005858, symSize: 0x2C }
  - { offsetInCU: 0x18D90, offset: 0x18D90, size: 0x8, addend: 0x0, symName: __ZNSt3__19allocatorIP8MushroomE7destroyB8ue170006EPS2_, symObjAddr: 0x3E14, symBinAddr: 0x100005898, symSize: 0x14 }
  - { offsetInCU: 0x18DC3, offset: 0x18DC3, size: 0x8, addend: 0x0, symName: __ZNKSt3__16vectorIP8MushroomNS_9allocatorIS2_EEE31__annotate_contiguous_containerB8ue170006EPKvS7_S7_S7_, symObjAddr: 0x3E28, symBinAddr: 0x1000058AC, symSize: 0x20 }
  - { offsetInCU: 0x18E14, offset: 0x18E14, size: 0x8, addend: 0x0, symName: __ZNKSt3__16vectorIP8MushroomNS_9allocatorIS2_EEE4dataB8ue170006Ev, symObjAddr: 0x3E48, symBinAddr: 0x1000058CC, symSize: 0x28 }
  - { offsetInCU: 0x18E39, offset: 0x18E39, size: 0x8, addend: 0x0, symName: __ZNSt3__19allocatorIP8MushroomE10deallocateB8ue170006EPS2_m, symObjAddr: 0x3E70, symBinAddr: 0x1000058F4, symSize: 0x40 }
  - { offsetInCU: 0x18E7A, offset: 0x18E7A, size: 0x8, addend: 0x0, symName: __ZNSt3__117__compressed_pairIPP8MushroomNS_9allocatorIS2_EEE6secondB8ue170006Ev, symObjAddr: 0x3F2C, symBinAddr: 0x1000059B0, symSize: 0x24 }
  - { offsetInCU: 0x18E9F, offset: 0x18E9F, size: 0x8, addend: 0x0, symName: __ZNSt3__122__compressed_pair_elemINS_9allocatorIP8MushroomEELi1ELb1EE5__getB8ue170006Ev, symObjAddr: 0x3F50, symBinAddr: 0x1000059D4, symSize: 0x14 }
  - { offsetInCU: 0x18EC4, offset: 0x18EC4, size: 0x8, addend: 0x0, symName: __ZNKSt3__16vectorIP8MushroomNS_9allocatorIS2_EEE9__end_capB8ue170006Ev, symObjAddr: 0x3F64, symBinAddr: 0x1000059E8, symSize: 0x28 }
  - { offsetInCU: 0x18EE9, offset: 0x18EE9, size: 0x8, addend: 0x0, symName: __ZNKSt3__117__compressed_pairIPP8MushroomNS_9allocatorIS2_EEE5firstB8ue170006Ev, symObjAddr: 0x3F8C, symBinAddr: 0x100005A10, symSize: 0x24 }
  - { offsetInCU: 0x18F0E, offset: 0x18F0E, size: 0x8, addend: 0x0, symName: __ZNKSt3__122__compressed_pair_elemIPP8MushroomLi0ELb0EE5__getB8ue170006Ev, symObjAddr: 0x3FB0, symBinAddr: 0x100005A34, symSize: 0x14 }
  - { offsetInCU: 0x18F33, offset: 0x18F33, size: 0x8, addend: 0x0, symName: __ZNSt3__16vectorIP4NodeNS_9allocatorIS2_EEED2B8ue170006Ev, symObjAddr: 0x3FC4, symBinAddr: 0x100005A48, symSize: 0x44 }
  - { offsetInCU: 0x18F5C, offset: 0x18F5C, size: 0x8, addend: 0x0, symName: __ZNSt3__16vectorIP4NodeNS_9allocatorIS2_EEE16__destroy_vectorC1B8ue170006ERS5_, symObjAddr: 0x4008, symBinAddr: 0x100005A8C, symSize: 0x34 }
  - { offsetInCU: 0x18F94, offset: 0x18F94, size: 0x8, addend: 0x0, symName: __ZNSt3__16vectorIP4NodeNS_9allocatorIS2_EEE16__destroy_vectorclB8ue170006Ev, symObjAddr: 0x403C, symBinAddr: 0x100005AC0, symSize: 0x90 }
  - { offsetInCU: 0x18FB9, offset: 0x18FB9, size: 0x8, addend: 0x0, symName: __ZNSt3__16vectorIP4NodeNS_9allocatorIS2_EEE16__destroy_vectorC2B8ue170006ERS5_, symObjAddr: 0x40CC, symBinAddr: 0x100005B50, symSize: 0x20 }
  - { offsetInCU: 0x18FF1, offset: 0x18FF1, size: 0x8, addend: 0x0, symName: __ZNSt3__16vectorIP4NodeNS_9allocatorIS2_EEE7__clearB8ue170006Ev, symObjAddr: 0x40EC, symBinAddr: 0x100005B70, symSize: 0x28 }
  - { offsetInCU: 0x19016, offset: 0x19016, size: 0x8, addend: 0x0, symName: __ZNKSt3__16vectorIP4NodeNS_9allocatorIS2_EEE17__annotate_deleteB8ue170006Ev, symObjAddr: 0x4114, symBinAddr: 0x100005B98, symSize: 0xB8 }
  - { offsetInCU: 0x1903B, offset: 0x1903B, size: 0x8, addend: 0x0, symName: __ZNSt3__116allocator_traitsINS_9allocatorIP4NodeEEE10deallocateB8ue170006ERS4_PS3_m, symObjAddr: 0x41CC, symBinAddr: 0x100005C50, symSize: 0x34 }
  - { offsetInCU: 0x1907D, offset: 0x1907D, size: 0x8, addend: 0x0, symName: __ZNSt3__16vectorIP4NodeNS_9allocatorIS2_EEE7__allocB8ue170006Ev, symObjAddr: 0x4200, symBinAddr: 0x100005C84, symSize: 0x28 }
  - { offsetInCU: 0x190A2, offset: 0x190A2, size: 0x8, addend: 0x0, symName: __ZNKSt3__16vectorIP4NodeNS_9allocatorIS2_EEE8capacityB8ue170006Ev, symObjAddr: 0x4228, symBinAddr: 0x100005CAC, symSize: 0x40 }
  - { offsetInCU: 0x190C7, offset: 0x190C7, size: 0x8, addend: 0x0, symName: __ZNSt3__16vectorIP4NodeNS_9allocatorIS2_EEE22__base_destruct_at_endB8ue170006EPS2_, symObjAddr: 0x4268, symBinAddr: 0x100005CEC, symSize: 0x8C }
  - { offsetInCU: 0x1910A, offset: 0x1910A, size: 0x8, addend: 0x0, symName: __ZNSt3__116allocator_traitsINS_9allocatorIP4NodeEEE7destroyB8ue170006IS3_vEEvRS4_PT_, symObjAddr: 0x42F4, symBinAddr: 0x100005D78, symSize: 0x2C }
  - { offsetInCU: 0x19147, offset: 0x19147, size: 0x8, addend: 0x0, symName: __ZNSt3__19allocatorIP4NodeE7destroyB8ue170006EPS2_, symObjAddr: 0x4334, symBinAddr: 0x100005DB8, symSize: 0x14 }
  - { offsetInCU: 0x1917A, offset: 0x1917A, size: 0x8, addend: 0x0, symName: __ZNKSt3__16vectorIP4NodeNS_9allocatorIS2_EEE31__annotate_contiguous_containerB8ue170006EPKvS7_S7_S7_, symObjAddr: 0x4348, symBinAddr: 0x100005DCC, symSize: 0x20 }
  - { offsetInCU: 0x191CB, offset: 0x191CB, size: 0x8, addend: 0x0, symName: __ZNKSt3__16vectorIP4NodeNS_9allocatorIS2_EEE4dataB8ue170006Ev, symObjAddr: 0x4368, symBinAddr: 0x100005DEC, symSize: 0x28 }
  - { offsetInCU: 0x191F0, offset: 0x191F0, size: 0x8, addend: 0x0, symName: __ZNKSt3__16vectorIP4NodeNS_9allocatorIS2_EEE4sizeB8ue170006Ev, symObjAddr: 0x4390, symBinAddr: 0x100005E14, symSize: 0x28 }
  - { offsetInCU: 0x19215, offset: 0x19215, size: 0x8, addend: 0x0, symName: __ZNSt3__19allocatorIP4NodeE10deallocateB8ue170006EPS2_m, symObjAddr: 0x43B8, symBinAddr: 0x100005E3C, symSize: 0x40 }
  - { offsetInCU: 0x19256, offset: 0x19256, size: 0x8, addend: 0x0, symName: __ZNSt3__117__compressed_pairIPP4NodeNS_9allocatorIS2_EEE6secondB8ue170006Ev, symObjAddr: 0x43F8, symBinAddr: 0x100005E7C, symSize: 0x24 }
  - { offsetInCU: 0x1927B, offset: 0x1927B, size: 0x8, addend: 0x0, symName: __ZNSt3__122__compressed_pair_elemINS_9allocatorIP4NodeEELi1ELb1EE5__getB8ue170006Ev, symObjAddr: 0x441C, symBinAddr: 0x100005EA0, symSize: 0x14 }
  - { offsetInCU: 0x192A0, offset: 0x192A0, size: 0x8, addend: 0x0, symName: __ZNKSt3__16vectorIP4NodeNS_9allocatorIS2_EEE9__end_capB8ue170006Ev, symObjAddr: 0x4430, symBinAddr: 0x100005EB4, symSize: 0x28 }
  - { offsetInCU: 0x192C5, offset: 0x192C5, size: 0x8, addend: 0x0, symName: __ZNKSt3__117__compressed_pairIPP4NodeNS_9allocatorIS2_EEE5firstB8ue170006Ev, symObjAddr: 0x4458, symBinAddr: 0x100005EDC, symSize: 0x24 }
  - { offsetInCU: 0x192EA, offset: 0x192EA, size: 0x8, addend: 0x0, symName: __ZNKSt3__122__compressed_pair_elemIPP4NodeLi0ELb0EE5__getB8ue170006Ev, symObjAddr: 0x447C, symBinAddr: 0x100005F00, symSize: 0x14 }
  - { offsetInCU: 0x1930F, offset: 0x1930F, size: 0x8, addend: 0x0, symName: __ZNSt3__16vectorINS0_IP4NodeNS_9allocatorIS2_EEEENS3_IS5_EEED2B8ue170006Ev, symObjAddr: 0x4490, symBinAddr: 0x100005F14, symSize: 0x44 }
  - { offsetInCU: 0x19338, offset: 0x19338, size: 0x8, addend: 0x0, symName: __ZNSt3__16vectorINS0_IP4NodeNS_9allocatorIS2_EEEENS3_IS5_EEE16__destroy_vectorC1B8ue170006ERS7_, symObjAddr: 0x44D4, symBinAddr: 0x100005F58, symSize: 0x34 }
  - { offsetInCU: 0x19370, offset: 0x19370, size: 0x8, addend: 0x0, symName: __ZNSt3__16vectorINS0_IP4NodeNS_9allocatorIS2_EEEENS3_IS5_EEE16__destroy_vectorclB8ue170006Ev, symObjAddr: 0x4508, symBinAddr: 0x100005F8C, symSize: 0x90 }
  - { offsetInCU: 0x19395, offset: 0x19395, size: 0x8, addend: 0x0, symName: __ZNSt3__16vectorINS0_IP4NodeNS_9allocatorIS2_EEEENS3_IS5_EEE16__destroy_vectorC2B8ue170006ERS7_, symObjAddr: 0x4598, symBinAddr: 0x10000601C, symSize: 0x20 }
  - { offsetInCU: 0x193CD, offset: 0x193CD, size: 0x8, addend: 0x0, symName: __ZNSt3__16vectorINS0_IP4NodeNS_9allocatorIS2_EEEENS3_IS5_EEE7__clearB8ue170006Ev, symObjAddr: 0x45B8, symBinAddr: 0x10000603C, symSize: 0x28 }
  - { offsetInCU: 0x193F2, offset: 0x193F2, size: 0x8, addend: 0x0, symName: __ZNKSt3__16vectorINS0_IP4NodeNS_9allocatorIS2_EEEENS3_IS5_EEE17__annotate_deleteB8ue170006Ev, symObjAddr: 0x45E0, symBinAddr: 0x100006064, symSize: 0xD4 }
  - { offsetInCU: 0x19417, offset: 0x19417, size: 0x8, addend: 0x0, symName: __ZNSt3__116allocator_traitsINS_9allocatorINS_6vectorIP4NodeNS1_IS4_EEEEEEE10deallocateB8ue170006ERS7_PS6_m, symObjAddr: 0x46B4, symBinAddr: 0x100006138, symSize: 0x34 }
  - { offsetInCU: 0x19459, offset: 0x19459, size: 0x8, addend: 0x0, symName: __ZNSt3__16vectorINS0_IP4NodeNS_9allocatorIS2_EEEENS3_IS5_EEE7__allocB8ue170006Ev, symObjAddr: 0x46E8, symBinAddr: 0x10000616C, symSize: 0x28 }
  - { offsetInCU: 0x1947E, offset: 0x1947E, size: 0x8, addend: 0x0, symName: __ZNKSt3__16vectorINS0_IP4NodeNS_9allocatorIS2_EEEENS3_IS5_EEE8capacityB8ue170006Ev, symObjAddr: 0x4710, symBinAddr: 0x100006194, symSize: 0x40 }
  - { offsetInCU: 0x194A3, offset: 0x194A3, size: 0x8, addend: 0x0, symName: __ZNSt3__16vectorINS0_IP4NodeNS_9allocatorIS2_EEEENS3_IS5_EEE22__base_destruct_at_endB8ue170006EPS5_, symObjAddr: 0x4750, symBinAddr: 0x1000061D4, symSize: 0x8C }
  - { offsetInCU: 0x194E6, offset: 0x194E6, size: 0x8, addend: 0x0, symName: __ZNSt3__116allocator_traitsINS_9allocatorINS_6vectorIP4NodeNS1_IS4_EEEEEEE7destroyB8ue170006IS6_vEEvRS7_PT_, symObjAddr: 0x47DC, symBinAddr: 0x100006260, symSize: 0x2C }
  - { offsetInCU: 0x19523, offset: 0x19523, size: 0x8, addend: 0x0, symName: __ZNSt3__19allocatorINS_6vectorIP4NodeNS0_IS3_EEEEE7destroyB8ue170006EPS5_, symObjAddr: 0x481C, symBinAddr: 0x1000062A0, symSize: 0x28 }
  - { offsetInCU: 0x19556, offset: 0x19556, size: 0x8, addend: 0x0, symName: __ZNKSt3__16vectorINS0_IP4NodeNS_9allocatorIS2_EEEENS3_IS5_EEE31__annotate_contiguous_containerB8ue170006EPKvS9_S9_S9_, symObjAddr: 0x4844, symBinAddr: 0x1000062C8, symSize: 0x20 }
  - { offsetInCU: 0x195A7, offset: 0x195A7, size: 0x8, addend: 0x0, symName: __ZNKSt3__16vectorINS0_IP4NodeNS_9allocatorIS2_EEEENS3_IS5_EEE4dataB8ue170006Ev, symObjAddr: 0x4864, symBinAddr: 0x1000062E8, symSize: 0x28 }
  - { offsetInCU: 0x195CC, offset: 0x195CC, size: 0x8, addend: 0x0, symName: __ZNSt3__19allocatorINS_6vectorIP4NodeNS0_IS3_EEEEE10deallocateB8ue170006EPS5_m, symObjAddr: 0x488C, symBinAddr: 0x100006310, symSize: 0x44 }
  - { offsetInCU: 0x1960D, offset: 0x1960D, size: 0x8, addend: 0x0, symName: __ZNSt3__117__compressed_pairIPNS_6vectorIP4NodeNS_9allocatorIS3_EEEENS4_IS6_EEE6secondB8ue170006Ev, symObjAddr: 0x48D0, symBinAddr: 0x100006354, symSize: 0x24 }
  - { offsetInCU: 0x19632, offset: 0x19632, size: 0x8, addend: 0x0, symName: __ZNSt3__122__compressed_pair_elemINS_9allocatorINS_6vectorIP4NodeNS1_IS4_EEEEEELi1ELb1EE5__getB8ue170006Ev, symObjAddr: 0x48F4, symBinAddr: 0x100006378, symSize: 0x14 }
  - { offsetInCU: 0x19657, offset: 0x19657, size: 0x8, addend: 0x0, symName: __ZNKSt3__16vectorINS0_IP4NodeNS_9allocatorIS2_EEEENS3_IS5_EEE9__end_capB8ue170006Ev, symObjAddr: 0x4908, symBinAddr: 0x10000638C, symSize: 0x28 }
  - { offsetInCU: 0x1967C, offset: 0x1967C, size: 0x8, addend: 0x0, symName: __ZNKSt3__117__compressed_pairIPNS_6vectorIP4NodeNS_9allocatorIS3_EEEENS4_IS6_EEE5firstB8ue170006Ev, symObjAddr: 0x4930, symBinAddr: 0x1000063B4, symSize: 0x24 }
  - { offsetInCU: 0x196A1, offset: 0x196A1, size: 0x8, addend: 0x0, symName: __ZNKSt3__122__compressed_pair_elemIPNS_6vectorIP4NodeNS_9allocatorIS3_EEEELi0ELb0EE5__getB8ue170006Ev, symObjAddr: 0x4954, symBinAddr: 0x1000063D8, symSize: 0x14 }
  - { offsetInCU: 0x196C6, offset: 0x196C6, size: 0x8, addend: 0x0, symName: __ZNSt3__16vectorIfNS_9allocatorIfEEED2B8ue170006Ev, symObjAddr: 0x4968, symBinAddr: 0x1000063EC, symSize: 0x44 }
  - { offsetInCU: 0x196EF, offset: 0x196EF, size: 0x8, addend: 0x0, symName: __ZNSt3__16vectorIfNS_9allocatorIfEEE16__destroy_vectorC1B8ue170006ERS3_, symObjAddr: 0x49AC, symBinAddr: 0x100006430, symSize: 0x34 }
  - { offsetInCU: 0x19727, offset: 0x19727, size: 0x8, addend: 0x0, symName: __ZNSt3__16vectorIfNS_9allocatorIfEEE16__destroy_vectorclB8ue170006Ev, symObjAddr: 0x49E0, symBinAddr: 0x100006464, symSize: 0x90 }
  - { offsetInCU: 0x1974C, offset: 0x1974C, size: 0x8, addend: 0x0, symName: __ZNSt3__16vectorIfNS_9allocatorIfEEE16__destroy_vectorC2B8ue170006ERS3_, symObjAddr: 0x4A70, symBinAddr: 0x1000064F4, symSize: 0x20 }
  - { offsetInCU: 0x19784, offset: 0x19784, size: 0x8, addend: 0x0, symName: __ZNSt3__16vectorIfNS_9allocatorIfEEE7__clearB8ue170006Ev, symObjAddr: 0x4A90, symBinAddr: 0x100006514, symSize: 0x28 }
  - { offsetInCU: 0x197A9, offset: 0x197A9, size: 0x8, addend: 0x0, symName: __ZNKSt3__16vectorIfNS_9allocatorIfEEE17__annotate_deleteB8ue170006Ev, symObjAddr: 0x4AB8, symBinAddr: 0x10000653C, symSize: 0xB8 }
  - { offsetInCU: 0x197CE, offset: 0x197CE, size: 0x8, addend: 0x0, symName: __ZNSt3__116allocator_traitsINS_9allocatorIfEEE10deallocateB8ue170006ERS2_Pfm, symObjAddr: 0x4B70, symBinAddr: 0x1000065F4, symSize: 0x34 }
  - { offsetInCU: 0x19810, offset: 0x19810, size: 0x8, addend: 0x0, symName: __ZNSt3__16vectorIfNS_9allocatorIfEEE7__allocB8ue170006Ev, symObjAddr: 0x4BA4, symBinAddr: 0x100006628, symSize: 0x28 }
  - { offsetInCU: 0x19835, offset: 0x19835, size: 0x8, addend: 0x0, symName: __ZNKSt3__16vectorIfNS_9allocatorIfEEE8capacityB8ue170006Ev, symObjAddr: 0x4BCC, symBinAddr: 0x100006650, symSize: 0x40 }
  - { offsetInCU: 0x1985A, offset: 0x1985A, size: 0x8, addend: 0x0, symName: __ZNSt3__16vectorIfNS_9allocatorIfEEE22__base_destruct_at_endB8ue170006EPf, symObjAddr: 0x4C0C, symBinAddr: 0x100006690, symSize: 0x8C }
  - { offsetInCU: 0x1989D, offset: 0x1989D, size: 0x8, addend: 0x0, symName: __ZNSt3__116allocator_traitsINS_9allocatorIfEEE7destroyB8ue170006IfvEEvRS2_PT_, symObjAddr: 0x4C98, symBinAddr: 0x10000671C, symSize: 0x2C }
  - { offsetInCU: 0x198DA, offset: 0x198DA, size: 0x8, addend: 0x0, symName: __ZNSt3__19allocatorIfE7destroyB8ue170006EPf, symObjAddr: 0x4CD8, symBinAddr: 0x10000675C, symSize: 0x14 }
  - { offsetInCU: 0x1990D, offset: 0x1990D, size: 0x8, addend: 0x0, symName: __ZNKSt3__16vectorIfNS_9allocatorIfEEE31__annotate_contiguous_containerB8ue170006EPKvS5_S5_S5_, symObjAddr: 0x4CEC, symBinAddr: 0x100006770, symSize: 0x20 }
  - { offsetInCU: 0x1995E, offset: 0x1995E, size: 0x8, addend: 0x0, symName: __ZNKSt3__16vectorIfNS_9allocatorIfEEE4dataB8ue170006Ev, symObjAddr: 0x4D0C, symBinAddr: 0x100006790, symSize: 0x28 }
  - { offsetInCU: 0x19983, offset: 0x19983, size: 0x8, addend: 0x0, symName: __ZNSt3__19allocatorIfE10deallocateB8ue170006EPfm, symObjAddr: 0x4D34, symBinAddr: 0x1000067B8, symSize: 0x40 }
  - { offsetInCU: 0x199C4, offset: 0x199C4, size: 0x8, addend: 0x0, symName: __ZNSt3__117__compressed_pairIPfNS_9allocatorIfEEE6secondB8ue170006Ev, symObjAddr: 0x4D74, symBinAddr: 0x1000067F8, symSize: 0x24 }
  - { offsetInCU: 0x199E9, offset: 0x199E9, size: 0x8, addend: 0x0, symName: __ZNSt3__122__compressed_pair_elemINS_9allocatorIfEELi1ELb1EE5__getB8ue170006Ev, symObjAddr: 0x4D98, symBinAddr: 0x10000681C, symSize: 0x14 }
  - { offsetInCU: 0x19A0E, offset: 0x19A0E, size: 0x8, addend: 0x0, symName: __ZNKSt3__16vectorIfNS_9allocatorIfEEE9__end_capB8ue170006Ev, symObjAddr: 0x4DAC, symBinAddr: 0x100006830, symSize: 0x28 }
  - { offsetInCU: 0x19A33, offset: 0x19A33, size: 0x8, addend: 0x0, symName: __ZNKSt3__117__compressed_pairIPfNS_9allocatorIfEEE5firstB8ue170006Ev, symObjAddr: 0x4DD4, symBinAddr: 0x100006858, symSize: 0x24 }
  - { offsetInCU: 0x19A58, offset: 0x19A58, size: 0x8, addend: 0x0, symName: __ZNKSt3__122__compressed_pair_elemIPfLi0ELb0EE5__getB8ue170006Ev, symObjAddr: 0x4DF8, symBinAddr: 0x10000687C, symSize: 0x14 }
  - { offsetInCU: 0x19A7D, offset: 0x19A7D, size: 0x8, addend: 0x0, symName: __ZNSt3__16vectorINS0_IfNS_9allocatorIfEEEENS1_IS3_EEED2B8ue170006Ev, symObjAddr: 0x4E0C, symBinAddr: 0x100006890, symSize: 0x44 }
  - { offsetInCU: 0x19AA6, offset: 0x19AA6, size: 0x8, addend: 0x0, symName: __ZNSt3__16vectorINS0_IfNS_9allocatorIfEEEENS1_IS3_EEE16__destroy_vectorC1B8ue170006ERS5_, symObjAddr: 0x4E50, symBinAddr: 0x1000068D4, symSize: 0x34 }
  - { offsetInCU: 0x19ADE, offset: 0x19ADE, size: 0x8, addend: 0x0, symName: __ZNSt3__16vectorINS0_IfNS_9allocatorIfEEEENS1_IS3_EEE16__destroy_vectorclB8ue170006Ev, symObjAddr: 0x4E84, symBinAddr: 0x100006908, symSize: 0x90 }
  - { offsetInCU: 0x19B03, offset: 0x19B03, size: 0x8, addend: 0x0, symName: __ZNSt3__16vectorINS0_IfNS_9allocatorIfEEEENS1_IS3_EEE16__destroy_vectorC2B8ue170006ERS5_, symObjAddr: 0x4F14, symBinAddr: 0x100006998, symSize: 0x20 }
  - { offsetInCU: 0x19B3B, offset: 0x19B3B, size: 0x8, addend: 0x0, symName: __ZNSt3__16vectorINS0_IfNS_9allocatorIfEEEENS1_IS3_EEE7__clearB8ue170006Ev, symObjAddr: 0x4F34, symBinAddr: 0x1000069B8, symSize: 0x28 }
  - { offsetInCU: 0x19B60, offset: 0x19B60, size: 0x8, addend: 0x0, symName: __ZNKSt3__16vectorINS0_IfNS_9allocatorIfEEEENS1_IS3_EEE17__annotate_deleteB8ue170006Ev, symObjAddr: 0x4F5C, symBinAddr: 0x1000069E0, symSize: 0xD4 }
  - { offsetInCU: 0x19B85, offset: 0x19B85, size: 0x8, addend: 0x0, symName: __ZNSt3__116allocator_traitsINS_9allocatorINS_6vectorIfNS1_IfEEEEEEE10deallocateB8ue170006ERS5_PS4_m, symObjAddr: 0x5030, symBinAddr: 0x100006AB4, symSize: 0x34 }
  - { offsetInCU: 0x19BC7, offset: 0x19BC7, size: 0x8, addend: 0x0, symName: __ZNSt3__16vectorINS0_IfNS_9allocatorIfEEEENS1_IS3_EEE7__allocB8ue170006Ev, symObjAddr: 0x5064, symBinAddr: 0x100006AE8, symSize: 0x28 }
  - { offsetInCU: 0x19BEC, offset: 0x19BEC, size: 0x8, addend: 0x0, symName: __ZNKSt3__16vectorINS0_IfNS_9allocatorIfEEEENS1_IS3_EEE8capacityB8ue170006Ev, symObjAddr: 0x508C, symBinAddr: 0x100006B10, symSize: 0x40 }
  - { offsetInCU: 0x19C11, offset: 0x19C11, size: 0x8, addend: 0x0, symName: __ZNSt3__16vectorINS0_IfNS_9allocatorIfEEEENS1_IS3_EEE22__base_destruct_at_endB8ue170006EPS3_, symObjAddr: 0x50CC, symBinAddr: 0x100006B50, symSize: 0x8C }
  - { offsetInCU: 0x19C54, offset: 0x19C54, size: 0x8, addend: 0x0, symName: __ZNSt3__116allocator_traitsINS_9allocatorINS_6vectorIfNS1_IfEEEEEEE7destroyB8ue170006IS4_vEEvRS5_PT_, symObjAddr: 0x5158, symBinAddr: 0x100006BDC, symSize: 0x2C }
  - { offsetInCU: 0x19C91, offset: 0x19C91, size: 0x8, addend: 0x0, symName: __ZNSt3__19allocatorINS_6vectorIfNS0_IfEEEEE7destroyB8ue170006EPS3_, symObjAddr: 0x5198, symBinAddr: 0x100006C1C, symSize: 0x28 }
  - { offsetInCU: 0x19CC4, offset: 0x19CC4, size: 0x8, addend: 0x0, symName: __ZNKSt3__16vectorINS0_IfNS_9allocatorIfEEEENS1_IS3_EEE31__annotate_contiguous_containerB8ue170006EPKvS7_S7_S7_, symObjAddr: 0x51C0, symBinAddr: 0x100006C44, symSize: 0x20 }
  - { offsetInCU: 0x19D15, offset: 0x19D15, size: 0x8, addend: 0x0, symName: __ZNKSt3__16vectorINS0_IfNS_9allocatorIfEEEENS1_IS3_EEE4dataB8ue170006Ev, symObjAddr: 0x51E0, symBinAddr: 0x100006C64, symSize: 0x28 }
  - { offsetInCU: 0x19D3A, offset: 0x19D3A, size: 0x8, addend: 0x0, symName: __ZNKSt3__16vectorINS0_IfNS_9allocatorIfEEEENS1_IS3_EEE4sizeB8ue170006Ev, symObjAddr: 0x5208, symBinAddr: 0x100006C8C, symSize: 0x28 }
  - { offsetInCU: 0x19D5F, offset: 0x19D5F, size: 0x8, addend: 0x0, symName: __ZNSt3__19allocatorINS_6vectorIfNS0_IfEEEEE10deallocateB8ue170006EPS3_m, symObjAddr: 0x5230, symBinAddr: 0x100006CB4, symSize: 0x44 }
  - { offsetInCU: 0x19DA0, offset: 0x19DA0, size: 0x8, addend: 0x0, symName: __ZNSt3__117__compressed_pairIPNS_6vectorIfNS_9allocatorIfEEEENS2_IS4_EEE6secondB8ue170006Ev, symObjAddr: 0x5274, symBinAddr: 0x100006CF8, symSize: 0x24 }
  - { offsetInCU: 0x19DC5, offset: 0x19DC5, size: 0x8, addend: 0x0, symName: __ZNSt3__122__compressed_pair_elemINS_9allocatorINS_6vectorIfNS1_IfEEEEEELi1ELb1EE5__getB8ue170006Ev, symObjAddr: 0x5298, symBinAddr: 0x100006D1C, symSize: 0x14 }
  - { offsetInCU: 0x19DEA, offset: 0x19DEA, size: 0x8, addend: 0x0, symName: __ZNKSt3__16vectorINS0_IfNS_9allocatorIfEEEENS1_IS3_EEE9__end_capB8ue170006Ev, symObjAddr: 0x52AC, symBinAddr: 0x100006D30, symSize: 0x28 }
  - { offsetInCU: 0x19E0F, offset: 0x19E0F, size: 0x8, addend: 0x0, symName: __ZNKSt3__117__compressed_pairIPNS_6vectorIfNS_9allocatorIfEEEENS2_IS4_EEE5firstB8ue170006Ev, symObjAddr: 0x52D4, symBinAddr: 0x100006D58, symSize: 0x24 }
  - { offsetInCU: 0x19E34, offset: 0x19E34, size: 0x8, addend: 0x0, symName: __ZNKSt3__122__compressed_pair_elemIPNS_6vectorIfNS_9allocatorIfEEEELi0ELb0EE5__getB8ue170006Ev, symObjAddr: 0x52F8, symBinAddr: 0x100006D7C, symSize: 0x14 }
  - { offsetInCU: 0x19E58, offset: 0x19E58, size: 0x8, addend: 0x0, symName: __ZNSt3__16vectorIP8MushroomNS_9allocatorIS2_EEE13__move_assignERS5_NS_17integral_constantIbLb1EEE, symObjAddr: 0x530C, symBinAddr: 0x100006D90, symSize: 0x94 }
  - { offsetInCU: 0x19E98, offset: 0x19E98, size: 0x8, addend: 0x0, symName: __ZNSt3__16vectorIP8MushroomNS_9allocatorIS2_EEE13__vdeallocateEv, symObjAddr: 0x53A0, symBinAddr: 0x100006E24, symSize: 0x94 }
  - { offsetInCU: 0x19EBF, offset: 0x19EBF, size: 0x8, addend: 0x0, symName: __ZNSt3__16vectorIP8MushroomNS_9allocatorIS2_EEE19__move_assign_allocB8ue170006ERS5_, symObjAddr: 0x5434, symBinAddr: 0x100006EB8, symSize: 0x2C }
  - { offsetInCU: 0x19EF3, offset: 0x19EF3, size: 0x8, addend: 0x0, symName: __ZNSt3__16vectorIP8MushroomNS_9allocatorIS2_EEE9__end_capB8ue170006Ev, symObjAddr: 0x5460, symBinAddr: 0x100006EE4, symSize: 0x28 }
  - { offsetInCU: 0x19F18, offset: 0x19F18, size: 0x8, addend: 0x0, symName: __ZNSt3__16vectorIP8MushroomNS_9allocatorIS2_EEE5clearB8ue170006Ev, symObjAddr: 0x5488, symBinAddr: 0x100006F0C, symSize: 0x44 }
  - { offsetInCU: 0x19F4C, offset: 0x19F4C, size: 0x8, addend: 0x0, symName: __ZNKSt3__16vectorIP8MushroomNS_9allocatorIS2_EEE17__annotate_shrinkB8ue170006Em, symObjAddr: 0x54CC, symBinAddr: 0x100006F50, symSize: 0xB4 }
  - { offsetInCU: 0x19F80, offset: 0x19F80, size: 0x8, addend: 0x0, symName: __ZNSt3__16vectorIP8MushroomNS_9allocatorIS2_EEE19__move_assign_allocB8ue170006ERS5_NS_17integral_constantIbLb1EEE, symObjAddr: 0x5580, symBinAddr: 0x100007004, symSize: 0x38 }
  - { offsetInCU: 0x19FBF, offset: 0x19FBF, size: 0x8, addend: 0x0, symName: __ZNSt3__117__compressed_pairIPP8MushroomNS_9allocatorIS2_EEE5firstB8ue170006Ev, symObjAddr: 0x55B8, symBinAddr: 0x10000703C, symSize: 0x24 }
  - { offsetInCU: 0x19FE4, offset: 0x19FE4, size: 0x8, addend: 0x0, symName: __ZNSt3__122__compressed_pair_elemIPP8MushroomLi0ELb0EE5__getB8ue170006Ev, symObjAddr: 0x55DC, symBinAddr: 0x100007060, symSize: 0x14 }
  - { offsetInCU: 0x1A009, offset: 0x1A009, size: 0x8, addend: 0x0, symName: __ZNSt3__16vectorIP4NodeNS_9allocatorIS2_EEE9__end_capB8ue170006Ev, symObjAddr: 0x55F0, symBinAddr: 0x100007074, symSize: 0x28 }
  - { offsetInCU: 0x1A033, offset: 0x1A033, size: 0x8, addend: 0x0, symName: __ZNSt3__16vectorIP4NodeNS_9allocatorIS2_EEE22__construct_one_at_endB8ue170006IJS2_EEEvDpOT_, symObjAddr: 0x5618, symBinAddr: 0x10000709C, symSize: 0x90 }
  - { offsetInCU: 0x1A080, offset: 0x1A080, size: 0x8, addend: 0x0, symName: __ZNSt3__16vectorIP4NodeNS_9allocatorIS2_EEE21__push_back_slow_pathIS2_EEvOT_, symObjAddr: 0x56A8, symBinAddr: 0x10000712C, symSize: 0xD8 }
  - { offsetInCU: 0x1A0DD, offset: 0x1A0DD, size: 0x8, addend: 0x0, symName: __ZNSt3__117__compressed_pairIPP4NodeNS_9allocatorIS2_EEE5firstB8ue170006Ev, symObjAddr: 0x5780, symBinAddr: 0x100007204, symSize: 0x24 }
  - { offsetInCU: 0x1A102, offset: 0x1A102, size: 0x8, addend: 0x0, symName: __ZNSt3__122__compressed_pair_elemIPP4NodeLi0ELb0EE5__getB8ue170006Ev, symObjAddr: 0x57A4, symBinAddr: 0x100007228, symSize: 0x14 }
  - { offsetInCU: 0x1A140, offset: 0x1A140, size: 0x8, addend: 0x0, symName: __ZNSt3__16vectorIP4NodeNS_9allocatorIS2_EEE21_ConstructTransactionC1B8ue170006ERS5_m, symObjAddr: 0x57B8, symBinAddr: 0x10000723C, symSize: 0x3C }
  - { offsetInCU: 0x1A187, offset: 0x1A187, size: 0x8, addend: 0x0, symName: __ZNSt3__116allocator_traitsINS_9allocatorIP4NodeEEE9constructB8ue170006IS3_JS3_EvEEvRS4_PT_DpOT0_, symObjAddr: 0x57F4, symBinAddr: 0x100007278, symSize: 0x34 }
  - { offsetInCU: 0x1A1DE, offset: 0x1A1DE, size: 0x8, addend: 0x0, symName: __ZNSt3__16vectorIP4NodeNS_9allocatorIS2_EEE21_ConstructTransactionD1B8ue170006Ev, symObjAddr: 0x5828, symBinAddr: 0x1000072AC, symSize: 0x2C }
  - { offsetInCU: 0x1A207, offset: 0x1A207, size: 0x8, addend: 0x0, symName: __ZNSt3__16vectorIP4NodeNS_9allocatorIS2_EEE21_ConstructTransactionC2B8ue170006ERS5_m, symObjAddr: 0x5854, symBinAddr: 0x1000072D8, symSize: 0x44 }
  - { offsetInCU: 0x1A24E, offset: 0x1A24E, size: 0x8, addend: 0x0, symName: __ZNSt3__19allocatorIP4NodeE9constructB8ue170006IS2_JS2_EEEvPT_DpOT0_, symObjAddr: 0x5898, symBinAddr: 0x10000731C, symSize: 0x28 }
  - { offsetInCU: 0x1A2A3, offset: 0x1A2A3, size: 0x8, addend: 0x0, symName: __ZNSt3__16vectorIP4NodeNS_9allocatorIS2_EEE21_ConstructTransactionD2B8ue170006Ev, symObjAddr: 0x58C0, symBinAddr: 0x100007344, symSize: 0x20 }
  - { offsetInCU: 0x1A2CB, offset: 0x1A2CB, size: 0x8, addend: 0x0, symName: __ZNKSt3__16vectorIP4NodeNS_9allocatorIS2_EEE11__recommendB8ue170006Em, symObjAddr: 0x58E0, symBinAddr: 0x100007364, symSize: 0xB4 }
  - { offsetInCU: 0x1A31F, offset: 0x1A31F, size: 0x8, addend: 0x0, symName: __ZNSt3__114__split_bufferIP4NodeRNS_9allocatorIS2_EEEC1EmmS5_, symObjAddr: 0x5994, symBinAddr: 0x100007418, symSize: 0x44 }
  - { offsetInCU: 0x1A374, offset: 0x1A374, size: 0x8, addend: 0x0, symName: __ZNSt3__114__split_bufferIP4NodeRNS_9allocatorIS2_EEED1Ev, symObjAddr: 0x5AE8, symBinAddr: 0x10000756C, symSize: 0x2C }
  - { offsetInCU: 0x1A39E, offset: 0x1A39E, size: 0x8, addend: 0x0, symName: __ZNKSt3__16vectorIP4NodeNS_9allocatorIS2_EEE8max_sizeEv, symObjAddr: 0x5B14, symBinAddr: 0x100007598, symSize: 0x60 }
  - { offsetInCU: 0x1A3C5, offset: 0x1A3C5, size: 0x8, addend: 0x0, symName: __ZNKSt3__16vectorIP4NodeNS_9allocatorIS2_EEE20__throw_length_errorB8ue170006Ev, symObjAddr: 0x5B74, symBinAddr: 0x1000075F8, symSize: 0x1C }
  - { offsetInCU: 0x1A3F4, offset: 0x1A3F4, size: 0x8, addend: 0x0, symName: __ZNSt3__116allocator_traitsINS_9allocatorIP4NodeEEE8max_sizeB8ue170006IS4_vEEmRKS4_, symObjAddr: 0x5BE8, symBinAddr: 0x10000766C, symSize: 0x24 }
  - { offsetInCU: 0x1A422, offset: 0x1A422, size: 0x8, addend: 0x0, symName: __ZNKSt3__16vectorIP4NodeNS_9allocatorIS2_EEE7__allocB8ue170006Ev, symObjAddr: 0x5C0C, symBinAddr: 0x100007690, symSize: 0x28 }
  - { offsetInCU: 0x1A447, offset: 0x1A447, size: 0x8, addend: 0x0, symName: __ZNSt3__114numeric_limitsIlE3maxB8ue170006Ev, symObjAddr: 0x5C34, symBinAddr: 0x1000076B8, symSize: 0x14 }
  - { offsetInCU: 0x1A465, offset: 0x1A465, size: 0x8, addend: 0x0, symName: __ZNKSt3__16__lessIvvEclB8ue170006ImmEEbRKT_RKT0_, symObjAddr: 0x5C9C, symBinAddr: 0x100007720, symSize: 0x34 }
  - { offsetInCU: 0x1A4B8, offset: 0x1A4B8, size: 0x8, addend: 0x0, symName: __ZNKSt3__19allocatorIP4NodeE8max_sizeB8ue170006Ev, symObjAddr: 0x5CD0, symBinAddr: 0x100007754, symSize: 0x14 }
  - { offsetInCU: 0x1A4DD, offset: 0x1A4DD, size: 0x8, addend: 0x0, symName: __ZNKSt3__117__compressed_pairIPP4NodeNS_9allocatorIS2_EEE6secondB8ue170006Ev, symObjAddr: 0x5CE4, symBinAddr: 0x100007768, symSize: 0x24 }
  - { offsetInCU: 0x1A502, offset: 0x1A502, size: 0x8, addend: 0x0, symName: __ZNKSt3__122__compressed_pair_elemINS_9allocatorIP4NodeEELi1ELb1EE5__getB8ue170006Ev, symObjAddr: 0x5D08, symBinAddr: 0x10000778C, symSize: 0x14 }
  - { offsetInCU: 0x1A527, offset: 0x1A527, size: 0x8, addend: 0x0, symName: __ZNSt3__123__libcpp_numeric_limitsIlLb1EE3maxB8ue170006Ev, symObjAddr: 0x5D1C, symBinAddr: 0x1000077A0, symSize: 0x8 }
  - { offsetInCU: 0x1A53B, offset: 0x1A53B, size: 0x8, addend: 0x0, symName: __ZNSt12length_errorC1B8ue170006EPKc, symObjAddr: 0x5D88, symBinAddr: 0x10000780C, symSize: 0x34 }
  - { offsetInCU: 0x1A572, offset: 0x1A572, size: 0x8, addend: 0x0, symName: __ZNSt12length_errorC2B8ue170006EPKc, symObjAddr: 0x5DBC, symBinAddr: 0x100007840, symSize: 0x4C }
  - { offsetInCU: 0x1A5A9, offset: 0x1A5A9, size: 0x8, addend: 0x0, symName: __ZNSt3__114__split_bufferIP4NodeRNS_9allocatorIS2_EEEC2EmmS5_, symObjAddr: 0x5E5C, symBinAddr: 0x1000078E0, symSize: 0xD4 }
  - { offsetInCU: 0x1A61C, offset: 0x1A61C, size: 0x8, addend: 0x0, symName: __ZNSt3__117__compressed_pairIPP4NodeRNS_9allocatorIS2_EEEC1B8ue170006IDnS6_EEOT_OT0_, symObjAddr: 0x5F30, symBinAddr: 0x1000079B4, symSize: 0x3C }
  - { offsetInCU: 0x1A673, offset: 0x1A673, size: 0x8, addend: 0x0, symName: __ZNSt3__114__split_bufferIP4NodeRNS_9allocatorIS2_EEE7__allocB8ue170006Ev, symObjAddr: 0x5FAC, symBinAddr: 0x100007A30, symSize: 0x28 }
  - { offsetInCU: 0x1A698, offset: 0x1A698, size: 0x8, addend: 0x0, symName: __ZNSt3__114__split_bufferIP4NodeRNS_9allocatorIS2_EEE9__end_capB8ue170006Ev, symObjAddr: 0x5FD4, symBinAddr: 0x100007A58, symSize: 0x28 }
  - { offsetInCU: 0x1A6BD, offset: 0x1A6BD, size: 0x8, addend: 0x0, symName: __ZNSt3__117__compressed_pairIPP4NodeRNS_9allocatorIS2_EEEC2B8ue170006IDnS6_EEOT_OT0_, symObjAddr: 0x5FFC, symBinAddr: 0x100007A80, symSize: 0x48 }
  - { offsetInCU: 0x1A714, offset: 0x1A714, size: 0x8, addend: 0x0, symName: __ZNSt3__122__compressed_pair_elemIRNS_9allocatorIP4NodeEELi1ELb0EEC2B8ue170006IS5_vEEOT_, symObjAddr: 0x6044, symBinAddr: 0x100007AC8, symSize: 0x20 }
  - { offsetInCU: 0x1A755, offset: 0x1A755, size: 0x8, addend: 0x0, symName: __ZNSt3__19allocatorIP4NodeE8allocateB8ue170006Em, symObjAddr: 0x6064, symBinAddr: 0x100007AE8, symSize: 0x58 }
  - { offsetInCU: 0x1A788, offset: 0x1A788, size: 0x8, addend: 0x0, symName: __ZNSt3__117__compressed_pairIPP4NodeRNS_9allocatorIS2_EEE6secondB8ue170006Ev, symObjAddr: 0x613C, symBinAddr: 0x100007BC0, symSize: 0x28 }
  - { offsetInCU: 0x1A7AD, offset: 0x1A7AD, size: 0x8, addend: 0x0, symName: __ZNSt3__122__compressed_pair_elemIRNS_9allocatorIP4NodeEELi1ELb0EE5__getB8ue170006Ev, symObjAddr: 0x6164, symBinAddr: 0x100007BE8, symSize: 0x18 }
  - { offsetInCU: 0x1A7D2, offset: 0x1A7D2, size: 0x8, addend: 0x0, symName: __ZNSt3__117__compressed_pairIPP4NodeRNS_9allocatorIS2_EEE5firstB8ue170006Ev, symObjAddr: 0x617C, symBinAddr: 0x100007C00, symSize: 0x24 }
  - { offsetInCU: 0x1A7F7, offset: 0x1A7F7, size: 0x8, addend: 0x0, symName: __ZNSt3__116reverse_iteratorIPP4NodeEC1B8ue170006ES3_, symObjAddr: 0x6218, symBinAddr: 0x100007C9C, symSize: 0x34 }
  - { offsetInCU: 0x1A82E, offset: 0x1A82E, size: 0x8, addend: 0x0, symName: __ZNKSt3__116reverse_iteratorIPP4NodeE4baseB8ue170006Ev, symObjAddr: 0x624C, symBinAddr: 0x100007CD0, symSize: 0x18 }
  - { offsetInCU: 0x1A853, offset: 0x1A853, size: 0x8, addend: 0x0, symName: __ZNKSt3__16vectorIP4NodeNS_9allocatorIS2_EEE14__annotate_newB8ue170006Em, symObjAddr: 0x62A0, symBinAddr: 0x100007D24, symSize: 0xAC }
  - { offsetInCU: 0x1A8AA, offset: 0x1A8AA, size: 0x8, addend: 0x0, symName: __ZNKSt3__111__move_loopINS_17_ClassicAlgPolicyEEclB8ue170006INS_16reverse_iteratorIPP4NodeEES8_S8_EENS_4pairIT_T1_EESA_T0_SB_, symObjAddr: 0x663C, symBinAddr: 0x1000080C0, symSize: 0xA0 }
  - { offsetInCU: 0x1A914, offset: 0x1A914, size: 0x8, addend: 0x0, symName: __ZNSt3__18_IterOpsINS_17_ClassicAlgPolicyEE11__iter_moveB8ue170006IRNS_16reverse_iteratorIPP4NodeEEEENS_9enable_ifIXsr12is_referenceIDTdeclsr3stdE7declvalIRT_EEEEE5valueEDTclsr3stdE4movedeclsr3stdE7declvalISC_EEEEE4typeEOSB_, symObjAddr: 0x6870, symBinAddr: 0x1000082F4, symSize: 0x28 }
  - { offsetInCU: 0x1A940, offset: 0x1A940, size: 0x8, addend: 0x0, symName: __ZNKSt3__116reverse_iteratorIPP4NodeEdeB8ue170006Ev, symObjAddr: 0x6898, symBinAddr: 0x10000831C, symSize: 0x28 }
  - { offsetInCU: 0x1A973, offset: 0x1A973, size: 0x8, addend: 0x0, symName: __ZNSt3__116reverse_iteratorIPP4NodeEppB8ue170006Ev, symObjAddr: 0x68C0, symBinAddr: 0x100008344, symSize: 0x20 }
  - { offsetInCU: 0x1A998, offset: 0x1A998, size: 0x8, addend: 0x0, symName: __ZNSt3__18_IterOpsINS_17_ClassicAlgPolicyEE25__validate_iter_referenceB8ue170006IRNS_16reverse_iteratorIPP4NodeEEEEvv, symObjAddr: 0x68E0, symBinAddr: 0x100008364, symSize: 0x4 }
  - { offsetInCU: 0x1A9B6, offset: 0x1A9B6, size: 0x8, addend: 0x0, symName: __ZNSt3__118__unwrap_iter_implINS_16reverse_iteratorIPP4NodeEELb0EE8__unwrapB8ue170006ES5_, symObjAddr: 0x68E4, symBinAddr: 0x100008368, symSize: 0x24 }
  - { offsetInCU: 0x1A9DE, offset: 0x1A9DE, size: 0x8, addend: 0x0, symName: __ZNSt3__14pairINS_16reverse_iteratorIPP4NodeEES5_EC1B8ue170006IS5_S5_LPv0EEEOT_OT0_, symObjAddr: 0x6908, symBinAddr: 0x10000838C, symSize: 0x3C }
  - { offsetInCU: 0x1AA3B, offset: 0x1AA3B, size: 0x8, addend: 0x0, symName: __ZNSt3__14pairINS_16reverse_iteratorIPP4NodeEES5_EC2B8ue170006IS5_S5_LPv0EEEOT_OT0_, symObjAddr: 0x6944, symBinAddr: 0x1000083C8, symSize: 0x34 }
  - { offsetInCU: 0x1AA98, offset: 0x1AA98, size: 0x8, addend: 0x0, symName: __ZNSt3__118__unwrap_iter_implINS_16reverse_iteratorIPP4NodeEELb0EE8__rewrapB8ue170006ES5_S5_, symObjAddr: 0x6978, symBinAddr: 0x1000083FC, symSize: 0x2C }
  - { offsetInCU: 0x1AAC5, offset: 0x1AAC5, size: 0x8, addend: 0x0, symName: __ZNSt3__116reverse_iteratorIPP4NodeEC2B8ue170006ES3_, symObjAddr: 0x69A4, symBinAddr: 0x100008428, symSize: 0x28 }
  - { offsetInCU: 0x1AAFC, offset: 0x1AAFC, size: 0x8, addend: 0x0, symName: __ZNSt3__114__split_bufferIP4NodeRNS_9allocatorIS2_EEED2Ev, symObjAddr: 0x69CC, symBinAddr: 0x100008450, symSize: 0x8C }
  - { offsetInCU: 0x1AB27, offset: 0x1AB27, size: 0x8, addend: 0x0, symName: __ZNSt3__114__split_bufferIP4NodeRNS_9allocatorIS2_EEE5clearB8ue170006Ev, symObjAddr: 0x6A58, symBinAddr: 0x1000084DC, symSize: 0x28 }
  - { offsetInCU: 0x1AB4C, offset: 0x1AB4C, size: 0x8, addend: 0x0, symName: __ZNKSt3__114__split_bufferIP4NodeRNS_9allocatorIS2_EEE8capacityB8ue170006Ev, symObjAddr: 0x6A80, symBinAddr: 0x100008504, symSize: 0x40 }
  - { offsetInCU: 0x1AB71, offset: 0x1AB71, size: 0x8, addend: 0x0, symName: __ZNSt3__114__split_bufferIP4NodeRNS_9allocatorIS2_EEE17__destruct_at_endB8ue170006EPS2_, symObjAddr: 0x6AC0, symBinAddr: 0x100008544, symSize: 0x2C }
  - { offsetInCU: 0x1ABA3, offset: 0x1ABA3, size: 0x8, addend: 0x0, symName: __ZNSt3__114__split_bufferIP4NodeRNS_9allocatorIS2_EEE17__destruct_at_endB8ue170006EPS2_NS_17integral_constantIbLb0EEE, symObjAddr: 0x6AEC, symBinAddr: 0x100008570, symSize: 0x80 }
  - { offsetInCU: 0x1ABE2, offset: 0x1ABE2, size: 0x8, addend: 0x0, symName: __ZNKSt3__114__split_bufferIP4NodeRNS_9allocatorIS2_EEE9__end_capB8ue170006Ev, symObjAddr: 0x6B6C, symBinAddr: 0x1000085F0, symSize: 0x28 }
  - { offsetInCU: 0x1AC07, offset: 0x1AC07, size: 0x8, addend: 0x0, symName: __ZNKSt3__117__compressed_pairIPP4NodeRNS_9allocatorIS2_EEE5firstB8ue170006Ev, symObjAddr: 0x6B94, symBinAddr: 0x100008618, symSize: 0x24 }
  - { offsetInCU: 0x1AC2C, offset: 0x1AC2C, size: 0x8, addend: 0x0, symName: __ZNSt3__16vectorINS0_IP4NodeNS_9allocatorIS2_EEEENS3_IS5_EEE9__end_capB8ue170006Ev, symObjAddr: 0x6BB8, symBinAddr: 0x10000863C, symSize: 0x28 }
  - { offsetInCU: 0x1AC51, offset: 0x1AC51, size: 0x8, addend: 0x0, symName: __ZNSt3__16vectorINS0_IP4NodeNS_9allocatorIS2_EEEENS3_IS5_EEE22__construct_one_at_endB8ue170006IJRKS5_EEEvDpOT_, symObjAddr: 0x6BE0, symBinAddr: 0x100008664, symSize: 0x90 }
  - { offsetInCU: 0x1AC9E, offset: 0x1AC9E, size: 0x8, addend: 0x0, symName: __ZNSt3__16vectorINS0_IP4NodeNS_9allocatorIS2_EEEENS3_IS5_EEE21__push_back_slow_pathIRKS5_EEvOT_, symObjAddr: 0x6C70, symBinAddr: 0x1000086F4, symSize: 0xD8 }
  - { offsetInCU: 0x1ACFB, offset: 0x1ACFB, size: 0x8, addend: 0x0, symName: __ZNSt3__117__compressed_pairIPNS_6vectorIP4NodeNS_9allocatorIS3_EEEENS4_IS6_EEE5firstB8ue170006Ev, symObjAddr: 0x6D48, symBinAddr: 0x1000087CC, symSize: 0x24 }
  - { offsetInCU: 0x1AD20, offset: 0x1AD20, size: 0x8, addend: 0x0, symName: __ZNSt3__122__compressed_pair_elemIPNS_6vectorIP4NodeNS_9allocatorIS3_EEEELi0ELb0EE5__getB8ue170006Ev, symObjAddr: 0x6D6C, symBinAddr: 0x1000087F0, symSize: 0x14 }
  - { offsetInCU: 0x1AD5E, offset: 0x1AD5E, size: 0x8, addend: 0x0, symName: __ZNSt3__16vectorINS0_IP4NodeNS_9allocatorIS2_EEEENS3_IS5_EEE21_ConstructTransactionC1B8ue170006ERS7_m, symObjAddr: 0x6D80, symBinAddr: 0x100008804, symSize: 0x3C }
  - { offsetInCU: 0x1ADA5, offset: 0x1ADA5, size: 0x8, addend: 0x0, symName: __ZNSt3__116allocator_traitsINS_9allocatorINS_6vectorIP4NodeNS1_IS4_EEEEEEE9constructB8ue170006IS6_JRKS6_EvEEvRS7_PT_DpOT0_, symObjAddr: 0x6DBC, symBinAddr: 0x100008840, symSize: 0x34 }
  - { offsetInCU: 0x1ADFC, offset: 0x1ADFC, size: 0x8, addend: 0x0, symName: __ZNSt3__16vectorINS0_IP4NodeNS_9allocatorIS2_EEEENS3_IS5_EEE21_ConstructTransactionD1B8ue170006Ev, symObjAddr: 0x6DF0, symBinAddr: 0x100008874, symSize: 0x2C }
  - { offsetInCU: 0x1AE25, offset: 0x1AE25, size: 0x8, addend: 0x0, symName: __ZNSt3__16vectorINS0_IP4NodeNS_9allocatorIS2_EEEENS3_IS5_EEE21_ConstructTransactionC2B8ue170006ERS7_m, symObjAddr: 0x6E1C, symBinAddr: 0x1000088A0, symSize: 0x4C }
  - { offsetInCU: 0x1AE6C, offset: 0x1AE6C, size: 0x8, addend: 0x0, symName: __ZNSt3__19allocatorINS_6vectorIP4NodeNS0_IS3_EEEEE9constructB8ue170006IS5_JRKS5_EEEvPT_DpOT0_, symObjAddr: 0x6E68, symBinAddr: 0x1000088EC, symSize: 0x30 }
  - { offsetInCU: 0x1AEC1, offset: 0x1AEC1, size: 0x8, addend: 0x0, symName: __ZNSt3__16vectorIP4NodeNS_9allocatorIS2_EEEC1ERKS5_, symObjAddr: 0x6E98, symBinAddr: 0x10000891C, symSize: 0x34 }
  - { offsetInCU: 0x1AEFB, offset: 0x1AEFB, size: 0x8, addend: 0x0, symName: __ZNSt3__16vectorIP4NodeNS_9allocatorIS2_EEEC2ERKS5_, symObjAddr: 0x6ECC, symBinAddr: 0x100008950, symSize: 0x94 }
  - { offsetInCU: 0x1AF35, offset: 0x1AF35, size: 0x8, addend: 0x0, symName: __ZNSt3__116allocator_traitsINS_9allocatorIP4NodeEEE37select_on_container_copy_constructionB8ue170006IS4_vvEES4_RKS4_, symObjAddr: 0x6F60, symBinAddr: 0x1000089E4, symSize: 0x10 }
  - { offsetInCU: 0x1AF69, offset: 0x1AF69, size: 0x8, addend: 0x0, symName: __ZNSt3__117__compressed_pairIPP4NodeNS_9allocatorIS2_EEEC1B8ue170006IDnS5_EEOT_OT0_, symObjAddr: 0x6F70, symBinAddr: 0x1000089F4, symSize: 0x3C }
  - { offsetInCU: 0x1AFC0, offset: 0x1AFC0, size: 0x8, addend: 0x0, symName: __ZNSt3__16vectorIP4NodeNS_9allocatorIS2_EEE16__init_with_sizeB8ue170006IPS2_S7_EEvT_T0_m, symObjAddr: 0x6FAC, symBinAddr: 0x100008A30, symSize: 0xB8 }
  - { offsetInCU: 0x1B033, offset: 0x1B033, size: 0x8, addend: 0x0, symName: __ZNSt3__117__compressed_pairIPP4NodeNS_9allocatorIS2_EEEC2B8ue170006IDnS5_EEOT_OT0_, symObjAddr: 0x7064, symBinAddr: 0x100008AE8, symSize: 0x44 }
  - { offsetInCU: 0x1B08A, offset: 0x1B08A, size: 0x8, addend: 0x0, symName: __ZNSt3__122__compressed_pair_elemINS_9allocatorIP4NodeEELi1ELb1EEC2B8ue170006IS4_vEEOT_, symObjAddr: 0x70A8, symBinAddr: 0x100008B2C, symSize: 0x18 }
  - { offsetInCU: 0x1B0CB, offset: 0x1B0CB, size: 0x8, addend: 0x0, symName: __ZNSt3__16vectorIP4NodeNS_9allocatorIS2_EEE11__vallocateB8ue170006Em, symObjAddr: 0x7100, symBinAddr: 0x100008B84, symSize: 0xAC }
  - { offsetInCU: 0x1B10D, offset: 0x1B10D, size: 0x8, addend: 0x0, symName: __ZNSt3__16vectorIP4NodeNS_9allocatorIS2_EEE18__construct_at_endIPS2_S7_EEvT_T0_m, symObjAddr: 0x71AC, symBinAddr: 0x100008C30, symSize: 0x8C }
  - { offsetInCU: 0x1B182, offset: 0x1B182, size: 0x8, addend: 0x0, symName: __ZNSt3__128__exception_guard_exceptionsINS_6vectorIP4NodeNS_9allocatorIS3_EEE16__destroy_vectorEE10__completeB8ue170006Ev, symObjAddr: 0x7238, symBinAddr: 0x100008CBC, symSize: 0x1C }
  - { offsetInCU: 0x1B1A7, offset: 0x1B1A7, size: 0x8, addend: 0x0, symName: __ZNSt3__128__exception_guard_exceptionsINS_6vectorIP4NodeNS_9allocatorIS3_EEE16__destroy_vectorEED1B8ue170006Ev, symObjAddr: 0x7254, symBinAddr: 0x100008CD8, symSize: 0x2C }
  - { offsetInCU: 0x1B1D0, offset: 0x1B1D0, size: 0x8, addend: 0x0, symName: __ZNSt3__128__exception_guard_exceptionsINS_6vectorIP4NodeNS_9allocatorIS3_EEE16__destroy_vectorEEC1B8ue170006ES7_, symObjAddr: 0x7280, symBinAddr: 0x100008D04, symSize: 0x34 }
  - { offsetInCU: 0x1B207, offset: 0x1B207, size: 0x8, addend: 0x0, symName: __ZNSt3__128__exception_guard_exceptionsINS_6vectorIP4NodeNS_9allocatorIS3_EEE16__destroy_vectorEEC2B8ue170006ES7_, symObjAddr: 0x72B4, symBinAddr: 0x100008D38, symSize: 0x24 }
  - { offsetInCU: 0x1B25C, offset: 0x1B25C, size: 0x8, addend: 0x0, symName: __ZNSt3__14pairIPP4NodeS3_EC1B8ue170006IS3_S3_LPv0EEEOT_OT0_, symObjAddr: 0x7488, symBinAddr: 0x100008F0C, symSize: 0x3C }
  - { offsetInCU: 0x1B2B9, offset: 0x1B2B9, size: 0x8, addend: 0x0, symName: __ZNSt3__14pairIPP4NodeS3_EC2B8ue170006IS3_S3_LPv0EEEOT_OT0_, symObjAddr: 0x74C4, symBinAddr: 0x100008F48, symSize: 0x34 }
  - { offsetInCU: 0x1B320, offset: 0x1B320, size: 0x8, addend: 0x0, symName: __ZNKSt3__114__copy_trivialclB8ue170006IP4NodeS3_Li0EEENS_4pairIPT_PT0_EES6_S6_S8_, symObjAddr: 0x7674, symBinAddr: 0x1000090F8, symSize: 0x48 }
  - { offsetInCU: 0x1B387, offset: 0x1B387, size: 0x8, addend: 0x0, symName: __ZNSt3__14pairIPP4NodeS3_EC1B8ue170006IRS3_S3_LPv0EEEOT_OT0_, symObjAddr: 0x7804, symBinAddr: 0x100009288, symSize: 0x3C }
  - { offsetInCU: 0x1B3E4, offset: 0x1B3E4, size: 0x8, addend: 0x0, symName: __ZNSt3__14pairIPP4NodeS3_EC2B8ue170006IRS3_S3_LPv0EEEOT_OT0_, symObjAddr: 0x7840, symBinAddr: 0x1000092C4, symSize: 0x34 }
  - { offsetInCU: 0x1B441, offset: 0x1B441, size: 0x8, addend: 0x0, symName: __ZNSt3__118__unwrap_iter_implIPP4NodeLb1EE8__unwrapB8ue170006ES3_, symObjAddr: 0x7874, symBinAddr: 0x1000092F8, symSize: 0x24 }
  - { offsetInCU: 0x1B464, offset: 0x1B464, size: 0x8, addend: 0x0, symName: __ZNSt3__118__unwrap_iter_implIPP4NodeLb1EE8__rewrapB8ue170006ES3_S3_, symObjAddr: 0x7898, symBinAddr: 0x10000931C, symSize: 0x50 }
  - { offsetInCU: 0x1B495, offset: 0x1B495, size: 0x8, addend: 0x0, symName: __ZNSt3__128__exception_guard_exceptionsINS_6vectorIP4NodeNS_9allocatorIS3_EEE16__destroy_vectorEED2B8ue170006Ev, symObjAddr: 0x78E8, symBinAddr: 0x10000936C, symSize: 0x48 }
  - { offsetInCU: 0x1B4BE, offset: 0x1B4BE, size: 0x8, addend: 0x0, symName: __ZNSt3__16vectorINS0_IP4NodeNS_9allocatorIS2_EEEENS3_IS5_EEE21_ConstructTransactionD2B8ue170006Ev, symObjAddr: 0x7930, symBinAddr: 0x1000093B4, symSize: 0x20 }
  - { offsetInCU: 0x1B4E6, offset: 0x1B4E6, size: 0x8, addend: 0x0, symName: __ZNKSt3__16vectorINS0_IP4NodeNS_9allocatorIS2_EEEENS3_IS5_EEE11__recommendB8ue170006Em, symObjAddr: 0x7950, symBinAddr: 0x1000093D4, symSize: 0xB4 }
  - { offsetInCU: 0x1B53A, offset: 0x1B53A, size: 0x8, addend: 0x0, symName: __ZNSt3__114__split_bufferINS_6vectorIP4NodeNS_9allocatorIS3_EEEERNS4_IS6_EEEC1EmmS8_, symObjAddr: 0x7A04, symBinAddr: 0x100009488, symSize: 0x44 }
  - { offsetInCU: 0x1B58F, offset: 0x1B58F, size: 0x8, addend: 0x0, symName: __ZNSt3__114__split_bufferINS_6vectorIP4NodeNS_9allocatorIS3_EEEERNS4_IS6_EEED1Ev, symObjAddr: 0x7B58, symBinAddr: 0x1000095DC, symSize: 0x2C }
  - { offsetInCU: 0x1B5B9, offset: 0x1B5B9, size: 0x8, addend: 0x0, symName: __ZNKSt3__16vectorINS0_IP4NodeNS_9allocatorIS2_EEEENS3_IS5_EEE8max_sizeEv, symObjAddr: 0x7B84, symBinAddr: 0x100009608, symSize: 0x60 }
  - { offsetInCU: 0x1B5E0, offset: 0x1B5E0, size: 0x8, addend: 0x0, symName: __ZNKSt3__16vectorINS0_IP4NodeNS_9allocatorIS2_EEEENS3_IS5_EEE20__throw_length_errorB8ue170006Ev, symObjAddr: 0x7BE4, symBinAddr: 0x100009668, symSize: 0x1C }
  - { offsetInCU: 0x1B60F, offset: 0x1B60F, size: 0x8, addend: 0x0, symName: __ZNSt3__116allocator_traitsINS_9allocatorINS_6vectorIP4NodeNS1_IS4_EEEEEEE8max_sizeB8ue170006IS7_vEEmRKS7_, symObjAddr: 0x7C00, symBinAddr: 0x100009684, symSize: 0x24 }
  - { offsetInCU: 0x1B63D, offset: 0x1B63D, size: 0x8, addend: 0x0, symName: __ZNKSt3__16vectorINS0_IP4NodeNS_9allocatorIS2_EEEENS3_IS5_EEE7__allocB8ue170006Ev, symObjAddr: 0x7C24, symBinAddr: 0x1000096A8, symSize: 0x28 }
  - { offsetInCU: 0x1B662, offset: 0x1B662, size: 0x8, addend: 0x0, symName: __ZNKSt3__19allocatorINS_6vectorIP4NodeNS0_IS3_EEEEE8max_sizeB8ue170006Ev, symObjAddr: 0x7C4C, symBinAddr: 0x1000096D0, symSize: 0x18 }
  - { offsetInCU: 0x1B687, offset: 0x1B687, size: 0x8, addend: 0x0, symName: __ZNKSt3__117__compressed_pairIPNS_6vectorIP4NodeNS_9allocatorIS3_EEEENS4_IS6_EEE6secondB8ue170006Ev, symObjAddr: 0x7C64, symBinAddr: 0x1000096E8, symSize: 0x24 }
  - { offsetInCU: 0x1B6AC, offset: 0x1B6AC, size: 0x8, addend: 0x0, symName: __ZNKSt3__122__compressed_pair_elemINS_9allocatorINS_6vectorIP4NodeNS1_IS4_EEEEEELi1ELb1EE5__getB8ue170006Ev, symObjAddr: 0x7C88, symBinAddr: 0x10000970C, symSize: 0x14 }
  - { offsetInCU: 0x1B6D1, offset: 0x1B6D1, size: 0x8, addend: 0x0, symName: __ZNSt3__114__split_bufferINS_6vectorIP4NodeNS_9allocatorIS3_EEEERNS4_IS6_EEEC2EmmS8_, symObjAddr: 0x7C9C, symBinAddr: 0x100009720, symSize: 0xE0 }
  - { offsetInCU: 0x1B744, offset: 0x1B744, size: 0x8, addend: 0x0, symName: __ZNSt3__117__compressed_pairIPNS_6vectorIP4NodeNS_9allocatorIS3_EEEERNS4_IS6_EEEC1B8ue170006IDnS9_EEOT_OT0_, symObjAddr: 0x7D7C, symBinAddr: 0x100009800, symSize: 0x3C }
  - { offsetInCU: 0x1B79B, offset: 0x1B79B, size: 0x8, addend: 0x0, symName: __ZNSt3__114__split_bufferINS_6vectorIP4NodeNS_9allocatorIS3_EEEERNS4_IS6_EEE7__allocB8ue170006Ev, symObjAddr: 0x7DF8, symBinAddr: 0x10000987C, symSize: 0x28 }
  - { offsetInCU: 0x1B7C0, offset: 0x1B7C0, size: 0x8, addend: 0x0, symName: __ZNSt3__114__split_bufferINS_6vectorIP4NodeNS_9allocatorIS3_EEEERNS4_IS6_EEE9__end_capB8ue170006Ev, symObjAddr: 0x7E20, symBinAddr: 0x1000098A4, symSize: 0x28 }
  - { offsetInCU: 0x1B7E5, offset: 0x1B7E5, size: 0x8, addend: 0x0, symName: __ZNSt3__117__compressed_pairIPNS_6vectorIP4NodeNS_9allocatorIS3_EEEERNS4_IS6_EEEC2B8ue170006IDnS9_EEOT_OT0_, symObjAddr: 0x7E48, symBinAddr: 0x1000098CC, symSize: 0x48 }
  - { offsetInCU: 0x1B83C, offset: 0x1B83C, size: 0x8, addend: 0x0, symName: __ZNSt3__122__compressed_pair_elemIRNS_9allocatorINS_6vectorIP4NodeNS1_IS4_EEEEEELi1ELb0EEC2B8ue170006IS8_vEEOT_, symObjAddr: 0x7E90, symBinAddr: 0x100009914, symSize: 0x20 }
  - { offsetInCU: 0x1B87D, offset: 0x1B87D, size: 0x8, addend: 0x0, symName: __ZNSt3__19allocatorINS_6vectorIP4NodeNS0_IS3_EEEEE8allocateB8ue170006Em, symObjAddr: 0x7EB0, symBinAddr: 0x100009934, symSize: 0x5C }
  - { offsetInCU: 0x1B8B0, offset: 0x1B8B0, size: 0x8, addend: 0x0, symName: __ZNSt3__117__compressed_pairIPNS_6vectorIP4NodeNS_9allocatorIS3_EEEERNS4_IS6_EEE6secondB8ue170006Ev, symObjAddr: 0x7F0C, symBinAddr: 0x100009990, symSize: 0x28 }
  - { offsetInCU: 0x1B8D5, offset: 0x1B8D5, size: 0x8, addend: 0x0, symName: __ZNSt3__122__compressed_pair_elemIRNS_9allocatorINS_6vectorIP4NodeNS1_IS4_EEEEEELi1ELb0EE5__getB8ue170006Ev, symObjAddr: 0x7F34, symBinAddr: 0x1000099B8, symSize: 0x18 }
  - { offsetInCU: 0x1B8FA, offset: 0x1B8FA, size: 0x8, addend: 0x0, symName: __ZNSt3__117__compressed_pairIPNS_6vectorIP4NodeNS_9allocatorIS3_EEEERNS4_IS6_EEE5firstB8ue170006Ev, symObjAddr: 0x7F4C, symBinAddr: 0x1000099D0, symSize: 0x24 }
  - { offsetInCU: 0x1B91F, offset: 0x1B91F, size: 0x8, addend: 0x0, symName: __ZNSt3__116reverse_iteratorIPNS_6vectorIP4NodeNS_9allocatorIS3_EEEEEC1B8ue170006ES7_, symObjAddr: 0x809C, symBinAddr: 0x100009B20, symSize: 0x34 }
  - { offsetInCU: 0x1B956, offset: 0x1B956, size: 0x8, addend: 0x0, symName: __ZNKSt3__116reverse_iteratorIPNS_6vectorIP4NodeNS_9allocatorIS3_EEEEE4baseB8ue170006Ev, symObjAddr: 0x80D0, symBinAddr: 0x100009B54, symSize: 0x18 }
  - { offsetInCU: 0x1B97B, offset: 0x1B97B, size: 0x8, addend: 0x0, symName: __ZNKSt3__16vectorINS0_IP4NodeNS_9allocatorIS2_EEEENS3_IS5_EEE14__annotate_newB8ue170006Em, symObjAddr: 0x8124, symBinAddr: 0x100009BA8, symSize: 0xC8 }
  - { offsetInCU: 0x1B9AF, offset: 0x1B9AF, size: 0x8, addend: 0x0, symName: __ZNSt3__129_AllocatorDestroyRangeReverseINS_9allocatorINS_6vectorIP4NodeNS1_IS4_EEEEEENS_16reverse_iteratorIPS6_EEEC1B8ue170006ERS7_RSA_SD_, symObjAddr: 0x8238, symBinAddr: 0x100009CBC, symSize: 0x44 }
  - { offsetInCU: 0x1BA05, offset: 0x1BA05, size: 0x8, addend: 0x0, symName: __ZNSt3__116allocator_traitsINS_9allocatorINS_6vectorIP4NodeNS1_IS4_EEEEEEE9constructB8ue170006IS6_JS6_EvEEvRS7_PT_DpOT0_, symObjAddr: 0x82C4, symBinAddr: 0x100009D48, symSize: 0x34 }
  - { offsetInCU: 0x1BA5C, offset: 0x1BA5C, size: 0x8, addend: 0x0, symName: __ZNKSt3__116reverse_iteratorIPNS_6vectorIP4NodeNS_9allocatorIS3_EEEEEdeB8ue170006Ev, symObjAddr: 0x831C, symBinAddr: 0x100009DA0, symSize: 0x28 }
  - { offsetInCU: 0x1BA8F, offset: 0x1BA8F, size: 0x8, addend: 0x0, symName: __ZNSt3__116reverse_iteratorIPNS_6vectorIP4NodeNS_9allocatorIS3_EEEEEppB8ue170006Ev, symObjAddr: 0x8344, symBinAddr: 0x100009DC8, symSize: 0x20 }
  - { offsetInCU: 0x1BAB4, offset: 0x1BAB4, size: 0x8, addend: 0x0, symName: __ZNSt3__128__exception_guard_exceptionsINS_29_AllocatorDestroyRangeReverseINS_9allocatorINS_6vectorIP4NodeNS2_IS5_EEEEEENS_16reverse_iteratorIPS7_EEEEE10__completeB8ue170006Ev, symObjAddr: 0x8364, symBinAddr: 0x100009DE8, symSize: 0x1C }
  - { offsetInCU: 0x1BAD9, offset: 0x1BAD9, size: 0x8, addend: 0x0, symName: __ZNSt3__128__exception_guard_exceptionsINS_29_AllocatorDestroyRangeReverseINS_9allocatorINS_6vectorIP4NodeNS2_IS5_EEEEEENS_16reverse_iteratorIPS7_EEEEED1B8ue170006Ev, symObjAddr: 0x8380, symBinAddr: 0x100009E04, symSize: 0x2C }
  - { offsetInCU: 0x1BB02, offset: 0x1BB02, size: 0x8, addend: 0x0, symName: __ZNSt3__128__exception_guard_exceptionsINS_29_AllocatorDestroyRangeReverseINS_9allocatorINS_6vectorIP4NodeNS2_IS5_EEEEEENS_16reverse_iteratorIPS7_EEEEEC1B8ue170006ESC_, symObjAddr: 0x83AC, symBinAddr: 0x100009E30, symSize: 0x34 }
  - { offsetInCU: 0x1BB3A, offset: 0x1BB3A, size: 0x8, addend: 0x0, symName: __ZNSt3__128__exception_guard_exceptionsINS_29_AllocatorDestroyRangeReverseINS_9allocatorINS_6vectorIP4NodeNS2_IS5_EEEEEENS_16reverse_iteratorIPS7_EEEEEC2B8ue170006ESC_, symObjAddr: 0x83E0, symBinAddr: 0x100009E64, symSize: 0x30 }
  - { offsetInCU: 0x1BB72, offset: 0x1BB72, size: 0x8, addend: 0x0, symName: __ZNSt3__129_AllocatorDestroyRangeReverseINS_9allocatorINS_6vectorIP4NodeNS1_IS4_EEEEEENS_16reverse_iteratorIPS6_EEEC2B8ue170006ERS7_RSA_SD_, symObjAddr: 0x8410, symBinAddr: 0x100009E94, symSize: 0x38 }
  - { offsetInCU: 0x1BBC8, offset: 0x1BBC8, size: 0x8, addend: 0x0, symName: __ZNSt3__19allocatorINS_6vectorIP4NodeNS0_IS3_EEEEE9constructB8ue170006IS5_JS5_EEEvPT_DpOT0_, symObjAddr: 0x8448, symBinAddr: 0x100009ECC, symSize: 0x30 }
  - { offsetInCU: 0x1BC1D, offset: 0x1BC1D, size: 0x8, addend: 0x0, symName: __ZNSt3__16vectorIP4NodeNS_9allocatorIS2_EEEC1B8ue170006EOS5_, symObjAddr: 0x8478, symBinAddr: 0x100009EFC, symSize: 0x34 }
  - { offsetInCU: 0x1BC57, offset: 0x1BC57, size: 0x8, addend: 0x0, symName: __ZNSt3__16vectorIP4NodeNS_9allocatorIS2_EEEC2B8ue170006EOS5_, symObjAddr: 0x84AC, symBinAddr: 0x100009F30, symSize: 0xC4 }
  - { offsetInCU: 0x1BC96, offset: 0x1BC96, size: 0x8, addend: 0x0, symName: __ZNSt3__119__to_address_helperINS_16reverse_iteratorIPNS_6vectorIP4NodeNS_9allocatorIS4_EEEEEEvE6__callB8ue170006ERKS9_, symObjAddr: 0x8570, symBinAddr: 0x100009FF4, symSize: 0x38 }
  - { offsetInCU: 0x1BCB9, offset: 0x1BCB9, size: 0x8, addend: 0x0, symName: __ZNKSt3__116reverse_iteratorIPNS_6vectorIP4NodeNS_9allocatorIS3_EEEEEptB8ue170006Ev, symObjAddr: 0x85A8, symBinAddr: 0x10000A02C, symSize: 0x24 }
  - { offsetInCU: 0x1BCDE, offset: 0x1BCDE, size: 0x8, addend: 0x0, symName: __ZNSt3__128__exception_guard_exceptionsINS_29_AllocatorDestroyRangeReverseINS_9allocatorINS_6vectorIP4NodeNS2_IS5_EEEEEENS_16reverse_iteratorIPS7_EEEEED2B8ue170006Ev, symObjAddr: 0x85CC, symBinAddr: 0x10000A050, symSize: 0x50 }
  - { offsetInCU: 0x1BD07, offset: 0x1BD07, size: 0x8, addend: 0x0, symName: __ZNKSt3__129_AllocatorDestroyRangeReverseINS_9allocatorINS_6vectorIP4NodeNS1_IS4_EEEEEENS_16reverse_iteratorIPS6_EEEclB8ue170006Ev, symObjAddr: 0x861C, symBinAddr: 0x10000A0A0, symSize: 0xB4 }
  - { offsetInCU: 0x1BD2D, offset: 0x1BD2D, size: 0x8, addend: 0x0, symName: __ZNSt3__116reverse_iteratorINS0_IPNS_6vectorIP4NodeNS_9allocatorIS3_EEEEEEEC1B8ue170006ES8_, symObjAddr: 0x8740, symBinAddr: 0x10000A1C4, symSize: 0x3C }
  - { offsetInCU: 0x1BD64, offset: 0x1BD64, size: 0x8, addend: 0x0, symName: __ZNSt3__116reverse_iteratorINS0_IPNS_6vectorIP4NodeNS_9allocatorIS3_EEEEEEEppB8ue170006Ev, symObjAddr: 0x8800, symBinAddr: 0x10000A284, symSize: 0x30 }
  - { offsetInCU: 0x1BD89, offset: 0x1BD89, size: 0x8, addend: 0x0, symName: __ZNKSt3__116reverse_iteratorINS0_IPNS_6vectorIP4NodeNS_9allocatorIS3_EEEEEEE4baseB8ue170006Ev, symObjAddr: 0x8830, symBinAddr: 0x10000A2B4, symSize: 0x24 }
  - { offsetInCU: 0x1BDB3, offset: 0x1BDB3, size: 0x8, addend: 0x0, symName: __ZNSt3__119__to_address_helperINS_16reverse_iteratorINS1_IPNS_6vectorIP4NodeNS_9allocatorIS4_EEEEEEEEvE6__callB8ue170006ERKSA_, symObjAddr: 0x8854, symBinAddr: 0x10000A2D8, symSize: 0x38 }
  - { offsetInCU: 0x1BDD6, offset: 0x1BDD6, size: 0x8, addend: 0x0, symName: __ZNKSt3__116reverse_iteratorINS0_IPNS_6vectorIP4NodeNS_9allocatorIS3_EEEEEEEptB8ue170006Ev, symObjAddr: 0x888C, symBinAddr: 0x10000A310, symSize: 0x24 }
  - { offsetInCU: 0x1BDFB, offset: 0x1BDFB, size: 0x8, addend: 0x0, symName: __ZNKSt3__116reverse_iteratorINS0_IPNS_6vectorIP4NodeNS_9allocatorIS3_EEEEEEEdeB8ue170006Ev, symObjAddr: 0x88B0, symBinAddr: 0x10000A334, symSize: 0x34 }
  - { offsetInCU: 0x1BE2E, offset: 0x1BE2E, size: 0x8, addend: 0x0, symName: __ZNSt3__116reverse_iteratorIPNS_6vectorIP4NodeNS_9allocatorIS3_EEEEEmmB8ue170006Ev, symObjAddr: 0x88E4, symBinAddr: 0x10000A368, symSize: 0x20 }
  - { offsetInCU: 0x1BE53, offset: 0x1BE53, size: 0x8, addend: 0x0, symName: __ZNSt3__116reverse_iteratorINS0_IPNS_6vectorIP4NodeNS_9allocatorIS3_EEEEEEEC2B8ue170006ES8_, symObjAddr: 0x8904, symBinAddr: 0x10000A388, symSize: 0x2C }
  - { offsetInCU: 0x1BE8A, offset: 0x1BE8A, size: 0x8, addend: 0x0, symName: __ZNSt3__116reverse_iteratorIPNS_6vectorIP4NodeNS_9allocatorIS3_EEEEEC2B8ue170006ES7_, symObjAddr: 0x8930, symBinAddr: 0x10000A3B4, symSize: 0x28 }
  - { offsetInCU: 0x1BEC1, offset: 0x1BEC1, size: 0x8, addend: 0x0, symName: __ZNSt3__114__split_bufferINS_6vectorIP4NodeNS_9allocatorIS3_EEEERNS4_IS6_EEED2Ev, symObjAddr: 0x8958, symBinAddr: 0x10000A3DC, symSize: 0x8C }
  - { offsetInCU: 0x1BEEC, offset: 0x1BEEC, size: 0x8, addend: 0x0, symName: __ZNSt3__114__split_bufferINS_6vectorIP4NodeNS_9allocatorIS3_EEEERNS4_IS6_EEE5clearB8ue170006Ev, symObjAddr: 0x89E4, symBinAddr: 0x10000A468, symSize: 0x28 }
  - { offsetInCU: 0x1BF11, offset: 0x1BF11, size: 0x8, addend: 0x0, symName: __ZNKSt3__114__split_bufferINS_6vectorIP4NodeNS_9allocatorIS3_EEEERNS4_IS6_EEE8capacityB8ue170006Ev, symObjAddr: 0x8A0C, symBinAddr: 0x10000A490, symSize: 0x40 }
  - { offsetInCU: 0x1BF36, offset: 0x1BF36, size: 0x8, addend: 0x0, symName: __ZNSt3__114__split_bufferINS_6vectorIP4NodeNS_9allocatorIS3_EEEERNS4_IS6_EEE17__destruct_at_endB8ue170006EPS6_, symObjAddr: 0x8A4C, symBinAddr: 0x10000A4D0, symSize: 0x2C }
  - { offsetInCU: 0x1BF68, offset: 0x1BF68, size: 0x8, addend: 0x0, symName: __ZNSt3__114__split_bufferINS_6vectorIP4NodeNS_9allocatorIS3_EEEERNS4_IS6_EEE17__destruct_at_endB8ue170006EPS6_NS_17integral_constantIbLb0EEE, symObjAddr: 0x8A78, symBinAddr: 0x10000A4FC, symSize: 0x80 }
  - { offsetInCU: 0x1BFA7, offset: 0x1BFA7, size: 0x8, addend: 0x0, symName: __ZNKSt3__114__split_bufferINS_6vectorIP4NodeNS_9allocatorIS3_EEEERNS4_IS6_EEE9__end_capB8ue170006Ev, symObjAddr: 0x8AF8, symBinAddr: 0x10000A57C, symSize: 0x28 }
  - { offsetInCU: 0x1BFCC, offset: 0x1BFCC, size: 0x8, addend: 0x0, symName: __ZNKSt3__117__compressed_pairIPNS_6vectorIP4NodeNS_9allocatorIS3_EEEERNS4_IS6_EEE5firstB8ue170006Ev, symObjAddr: 0x8B20, symBinAddr: 0x10000A5A4, symSize: 0x24 }
  - { offsetInCU: 0x1BFF1, offset: 0x1BFF1, size: 0x8, addend: 0x0, symName: __ZNSt3__16vectorIfNS_9allocatorIfEEE9__end_capB8ue170006Ev, symObjAddr: 0x8B44, symBinAddr: 0x10000A5C8, symSize: 0x28 }
  - { offsetInCU: 0x1C01B, offset: 0x1C01B, size: 0x8, addend: 0x0, symName: __ZNSt3__16vectorIfNS_9allocatorIfEEE22__construct_one_at_endB8ue170006IJfEEEvDpOT_, symObjAddr: 0x8B6C, symBinAddr: 0x10000A5F0, symSize: 0x90 }
  - { offsetInCU: 0x1C068, offset: 0x1C068, size: 0x8, addend: 0x0, symName: __ZNSt3__16vectorIfNS_9allocatorIfEEE21__push_back_slow_pathIfEEvOT_, symObjAddr: 0x8BFC, symBinAddr: 0x10000A680, symSize: 0xD8 }
  - { offsetInCU: 0x1C0C5, offset: 0x1C0C5, size: 0x8, addend: 0x0, symName: __ZNSt3__117__compressed_pairIPfNS_9allocatorIfEEE5firstB8ue170006Ev, symObjAddr: 0x8CD4, symBinAddr: 0x10000A758, symSize: 0x24 }
  - { offsetInCU: 0x1C0EA, offset: 0x1C0EA, size: 0x8, addend: 0x0, symName: __ZNSt3__122__compressed_pair_elemIPfLi0ELb0EE5__getB8ue170006Ev, symObjAddr: 0x8CF8, symBinAddr: 0x10000A77C, symSize: 0x14 }
  - { offsetInCU: 0x1C128, offset: 0x1C128, size: 0x8, addend: 0x0, symName: __ZNSt3__16vectorIfNS_9allocatorIfEEE21_ConstructTransactionC1B8ue170006ERS3_m, symObjAddr: 0x8D0C, symBinAddr: 0x10000A790, symSize: 0x3C }
  - { offsetInCU: 0x1C16F, offset: 0x1C16F, size: 0x8, addend: 0x0, symName: __ZNSt3__116allocator_traitsINS_9allocatorIfEEE9constructB8ue170006IfJfEvEEvRS2_PT_DpOT0_, symObjAddr: 0x8D48, symBinAddr: 0x10000A7CC, symSize: 0x34 }
  - { offsetInCU: 0x1C1C6, offset: 0x1C1C6, size: 0x8, addend: 0x0, symName: __ZNSt3__16vectorIfNS_9allocatorIfEEE21_ConstructTransactionD1B8ue170006Ev, symObjAddr: 0x8D7C, symBinAddr: 0x10000A800, symSize: 0x2C }
  - { offsetInCU: 0x1C1EF, offset: 0x1C1EF, size: 0x8, addend: 0x0, symName: __ZNSt3__16vectorIfNS_9allocatorIfEEE21_ConstructTransactionC2B8ue170006ERS3_m, symObjAddr: 0x8DA8, symBinAddr: 0x10000A82C, symSize: 0x44 }
  - { offsetInCU: 0x1C236, offset: 0x1C236, size: 0x8, addend: 0x0, symName: __ZNSt3__19allocatorIfE9constructB8ue170006IfJfEEEvPT_DpOT0_, symObjAddr: 0x8DEC, symBinAddr: 0x10000A870, symSize: 0x28 }
  - { offsetInCU: 0x1C28B, offset: 0x1C28B, size: 0x8, addend: 0x0, symName: __ZNSt3__16vectorIfNS_9allocatorIfEEE21_ConstructTransactionD2B8ue170006Ev, symObjAddr: 0x8E14, symBinAddr: 0x10000A898, symSize: 0x20 }
  - { offsetInCU: 0x1C2B3, offset: 0x1C2B3, size: 0x8, addend: 0x0, symName: __ZNKSt3__16vectorIfNS_9allocatorIfEEE11__recommendB8ue170006Em, symObjAddr: 0x8E34, symBinAddr: 0x10000A8B8, symSize: 0xB4 }
  - { offsetInCU: 0x1C307, offset: 0x1C307, size: 0x8, addend: 0x0, symName: __ZNSt3__114__split_bufferIfRNS_9allocatorIfEEEC1EmmS3_, symObjAddr: 0x8EE8, symBinAddr: 0x10000A96C, symSize: 0x44 }
  - { offsetInCU: 0x1C35C, offset: 0x1C35C, size: 0x8, addend: 0x0, symName: __ZNSt3__114__split_bufferIfRNS_9allocatorIfEEED1Ev, symObjAddr: 0x903C, symBinAddr: 0x10000AAC0, symSize: 0x2C }
  - { offsetInCU: 0x1C386, offset: 0x1C386, size: 0x8, addend: 0x0, symName: __ZNKSt3__16vectorIfNS_9allocatorIfEEE8max_sizeEv, symObjAddr: 0x9068, symBinAddr: 0x10000AAEC, symSize: 0x60 }
  - { offsetInCU: 0x1C3AD, offset: 0x1C3AD, size: 0x8, addend: 0x0, symName: __ZNKSt3__16vectorIfNS_9allocatorIfEEE20__throw_length_errorB8ue170006Ev, symObjAddr: 0x90C8, symBinAddr: 0x10000AB4C, symSize: 0x1C }
  - { offsetInCU: 0x1C3DC, offset: 0x1C3DC, size: 0x8, addend: 0x0, symName: __ZNSt3__116allocator_traitsINS_9allocatorIfEEE8max_sizeB8ue170006IS2_vEEmRKS2_, symObjAddr: 0x90E4, symBinAddr: 0x10000AB68, symSize: 0x24 }
  - { offsetInCU: 0x1C40A, offset: 0x1C40A, size: 0x8, addend: 0x0, symName: __ZNKSt3__16vectorIfNS_9allocatorIfEEE7__allocB8ue170006Ev, symObjAddr: 0x9108, symBinAddr: 0x10000AB8C, symSize: 0x28 }
  - { offsetInCU: 0x1C42F, offset: 0x1C42F, size: 0x8, addend: 0x0, symName: __ZNKSt3__19allocatorIfE8max_sizeB8ue170006Ev, symObjAddr: 0x9130, symBinAddr: 0x10000ABB4, symSize: 0x14 }
  - { offsetInCU: 0x1C454, offset: 0x1C454, size: 0x8, addend: 0x0, symName: __ZNKSt3__117__compressed_pairIPfNS_9allocatorIfEEE6secondB8ue170006Ev, symObjAddr: 0x9144, symBinAddr: 0x10000ABC8, symSize: 0x24 }
  - { offsetInCU: 0x1C479, offset: 0x1C479, size: 0x8, addend: 0x0, symName: __ZNKSt3__122__compressed_pair_elemINS_9allocatorIfEELi1ELb1EE5__getB8ue170006Ev, symObjAddr: 0x9168, symBinAddr: 0x10000ABEC, symSize: 0x14 }
  - { offsetInCU: 0x1C49E, offset: 0x1C49E, size: 0x8, addend: 0x0, symName: __ZNSt3__114__split_bufferIfRNS_9allocatorIfEEEC2EmmS3_, symObjAddr: 0x917C, symBinAddr: 0x10000AC00, symSize: 0xD4 }
  - { offsetInCU: 0x1C511, offset: 0x1C511, size: 0x8, addend: 0x0, symName: __ZNSt3__117__compressed_pairIPfRNS_9allocatorIfEEEC1B8ue170006IDnS4_EEOT_OT0_, symObjAddr: 0x9250, symBinAddr: 0x10000ACD4, symSize: 0x3C }
  - { offsetInCU: 0x1C568, offset: 0x1C568, size: 0x8, addend: 0x0, symName: __ZNSt3__114__split_bufferIfRNS_9allocatorIfEEE7__allocB8ue170006Ev, symObjAddr: 0x92CC, symBinAddr: 0x10000AD50, symSize: 0x28 }
  - { offsetInCU: 0x1C58D, offset: 0x1C58D, size: 0x8, addend: 0x0, symName: __ZNSt3__114__split_bufferIfRNS_9allocatorIfEEE9__end_capB8ue170006Ev, symObjAddr: 0x92F4, symBinAddr: 0x10000AD78, symSize: 0x28 }
  - { offsetInCU: 0x1C5B2, offset: 0x1C5B2, size: 0x8, addend: 0x0, symName: __ZNSt3__117__compressed_pairIPfRNS_9allocatorIfEEEC2B8ue170006IDnS4_EEOT_OT0_, symObjAddr: 0x931C, symBinAddr: 0x10000ADA0, symSize: 0x48 }
  - { offsetInCU: 0x1C609, offset: 0x1C609, size: 0x8, addend: 0x0, symName: __ZNSt3__122__compressed_pair_elemIRNS_9allocatorIfEELi1ELb0EEC2B8ue170006IS3_vEEOT_, symObjAddr: 0x9364, symBinAddr: 0x10000ADE8, symSize: 0x20 }
  - { offsetInCU: 0x1C64A, offset: 0x1C64A, size: 0x8, addend: 0x0, symName: __ZNSt3__19allocatorIfE8allocateB8ue170006Em, symObjAddr: 0x9384, symBinAddr: 0x10000AE08, symSize: 0x58 }
  - { offsetInCU: 0x1C67D, offset: 0x1C67D, size: 0x8, addend: 0x0, symName: __ZNSt3__117__compressed_pairIPfRNS_9allocatorIfEEE6secondB8ue170006Ev, symObjAddr: 0x93DC, symBinAddr: 0x10000AE60, symSize: 0x28 }
  - { offsetInCU: 0x1C6A2, offset: 0x1C6A2, size: 0x8, addend: 0x0, symName: __ZNSt3__122__compressed_pair_elemIRNS_9allocatorIfEELi1ELb0EE5__getB8ue170006Ev, symObjAddr: 0x9404, symBinAddr: 0x10000AE88, symSize: 0x18 }
  - { offsetInCU: 0x1C6C7, offset: 0x1C6C7, size: 0x8, addend: 0x0, symName: __ZNSt3__117__compressed_pairIPfRNS_9allocatorIfEEE5firstB8ue170006Ev, symObjAddr: 0x941C, symBinAddr: 0x10000AEA0, symSize: 0x24 }
  - { offsetInCU: 0x1C6EC, offset: 0x1C6EC, size: 0x8, addend: 0x0, symName: __ZNSt3__116reverse_iteratorIPfEC1B8ue170006ES1_, symObjAddr: 0x94B8, symBinAddr: 0x10000AF3C, symSize: 0x34 }
  - { offsetInCU: 0x1C723, offset: 0x1C723, size: 0x8, addend: 0x0, symName: __ZNKSt3__116reverse_iteratorIPfE4baseB8ue170006Ev, symObjAddr: 0x94EC, symBinAddr: 0x10000AF70, symSize: 0x18 }
  - { offsetInCU: 0x1C748, offset: 0x1C748, size: 0x8, addend: 0x0, symName: __ZNKSt3__16vectorIfNS_9allocatorIfEEE14__annotate_newB8ue170006Em, symObjAddr: 0x9540, symBinAddr: 0x10000AFC4, symSize: 0xAC }
  - { offsetInCU: 0x1C795, offset: 0x1C795, size: 0x8, addend: 0x0, symName: __ZNKSt3__111__move_loopINS_17_ClassicAlgPolicyEEclB8ue170006INS_16reverse_iteratorIPfEES6_S6_EENS_4pairIT_T1_EES8_T0_S9_, symObjAddr: 0x98DC, symBinAddr: 0x10000B360, symSize: 0xA0 }
  - { offsetInCU: 0x1C7FF, offset: 0x1C7FF, size: 0x8, addend: 0x0, symName: __ZNSt3__18_IterOpsINS_17_ClassicAlgPolicyEE11__iter_moveB8ue170006IRNS_16reverse_iteratorIPfEEEENS_9enable_ifIXsr12is_referenceIDTdeclsr3stdE7declvalIRT_EEEEE5valueEDTclsr3stdE4movedeclsr3stdE7declvalISA_EEEEE4typeEOS9_, symObjAddr: 0x9B10, symBinAddr: 0x10000B594, symSize: 0x28 }
  - { offsetInCU: 0x1C82B, offset: 0x1C82B, size: 0x8, addend: 0x0, symName: __ZNKSt3__116reverse_iteratorIPfEdeB8ue170006Ev, symObjAddr: 0x9B38, symBinAddr: 0x10000B5BC, symSize: 0x28 }
  - { offsetInCU: 0x1C85E, offset: 0x1C85E, size: 0x8, addend: 0x0, symName: __ZNSt3__116reverse_iteratorIPfEppB8ue170006Ev, symObjAddr: 0x9B60, symBinAddr: 0x10000B5E4, symSize: 0x20 }
  - { offsetInCU: 0x1C883, offset: 0x1C883, size: 0x8, addend: 0x0, symName: __ZNSt3__18_IterOpsINS_17_ClassicAlgPolicyEE25__validate_iter_referenceB8ue170006IRNS_16reverse_iteratorIPfEEEEvv, symObjAddr: 0x9B80, symBinAddr: 0x10000B604, symSize: 0x4 }
  - { offsetInCU: 0x1C8A1, offset: 0x1C8A1, size: 0x8, addend: 0x0, symName: __ZNSt3__118__unwrap_iter_implINS_16reverse_iteratorIPfEELb0EE8__unwrapB8ue170006ES3_, symObjAddr: 0x9B84, symBinAddr: 0x10000B608, symSize: 0x24 }
  - { offsetInCU: 0x1C8C9, offset: 0x1C8C9, size: 0x8, addend: 0x0, symName: __ZNSt3__14pairINS_16reverse_iteratorIPfEES3_EC1B8ue170006IS3_S3_LPv0EEEOT_OT0_, symObjAddr: 0x9BA8, symBinAddr: 0x10000B62C, symSize: 0x3C }
  - { offsetInCU: 0x1C926, offset: 0x1C926, size: 0x8, addend: 0x0, symName: __ZNSt3__14pairINS_16reverse_iteratorIPfEES3_EC2B8ue170006IS3_S3_LPv0EEEOT_OT0_, symObjAddr: 0x9BE4, symBinAddr: 0x10000B668, symSize: 0x34 }
  - { offsetInCU: 0x1C983, offset: 0x1C983, size: 0x8, addend: 0x0, symName: __ZNSt3__118__unwrap_iter_implINS_16reverse_iteratorIPfEELb0EE8__rewrapB8ue170006ES3_S3_, symObjAddr: 0x9C18, symBinAddr: 0x10000B69C, symSize: 0x2C }
  - { offsetInCU: 0x1C9B0, offset: 0x1C9B0, size: 0x8, addend: 0x0, symName: __ZNSt3__116reverse_iteratorIPfEC2B8ue170006ES1_, symObjAddr: 0x9C44, symBinAddr: 0x10000B6C8, symSize: 0x28 }
  - { offsetInCU: 0x1C9E7, offset: 0x1C9E7, size: 0x8, addend: 0x0, symName: __ZNSt3__114__split_bufferIfRNS_9allocatorIfEEED2Ev, symObjAddr: 0x9C6C, symBinAddr: 0x10000B6F0, symSize: 0x8C }
  - { offsetInCU: 0x1CA12, offset: 0x1CA12, size: 0x8, addend: 0x0, symName: __ZNSt3__114__split_bufferIfRNS_9allocatorIfEEE5clearB8ue170006Ev, symObjAddr: 0x9CF8, symBinAddr: 0x10000B77C, symSize: 0x28 }
  - { offsetInCU: 0x1CA37, offset: 0x1CA37, size: 0x8, addend: 0x0, symName: __ZNKSt3__114__split_bufferIfRNS_9allocatorIfEEE8capacityB8ue170006Ev, symObjAddr: 0x9D20, symBinAddr: 0x10000B7A4, symSize: 0x40 }
  - { offsetInCU: 0x1CA5C, offset: 0x1CA5C, size: 0x8, addend: 0x0, symName: __ZNSt3__114__split_bufferIfRNS_9allocatorIfEEE17__destruct_at_endB8ue170006EPf, symObjAddr: 0x9D60, symBinAddr: 0x10000B7E4, symSize: 0x2C }
  - { offsetInCU: 0x1CA8E, offset: 0x1CA8E, size: 0x8, addend: 0x0, symName: __ZNSt3__114__split_bufferIfRNS_9allocatorIfEEE17__destruct_at_endB8ue170006EPfNS_17integral_constantIbLb0EEE, symObjAddr: 0x9D8C, symBinAddr: 0x10000B810, symSize: 0x80 }
  - { offsetInCU: 0x1CACD, offset: 0x1CACD, size: 0x8, addend: 0x0, symName: __ZNKSt3__114__split_bufferIfRNS_9allocatorIfEEE9__end_capB8ue170006Ev, symObjAddr: 0x9E0C, symBinAddr: 0x10000B890, symSize: 0x28 }
  - { offsetInCU: 0x1CAF2, offset: 0x1CAF2, size: 0x8, addend: 0x0, symName: __ZNKSt3__117__compressed_pairIPfRNS_9allocatorIfEEE5firstB8ue170006Ev, symObjAddr: 0x9E34, symBinAddr: 0x10000B8B8, symSize: 0x24 }
  - { offsetInCU: 0x1CB17, offset: 0x1CB17, size: 0x8, addend: 0x0, symName: __ZNSt3__16vectorINS0_IfNS_9allocatorIfEEEENS1_IS3_EEE9__end_capB8ue170006Ev, symObjAddr: 0x9E58, symBinAddr: 0x10000B8DC, symSize: 0x28 }
  - { offsetInCU: 0x1CB3C, offset: 0x1CB3C, size: 0x8, addend: 0x0, symName: __ZNSt3__16vectorINS0_IfNS_9allocatorIfEEEENS1_IS3_EEE22__construct_one_at_endB8ue170006IJRKS3_EEEvDpOT_, symObjAddr: 0x9E80, symBinAddr: 0x10000B904, symSize: 0x90 }
  - { offsetInCU: 0x1CB89, offset: 0x1CB89, size: 0x8, addend: 0x0, symName: __ZNSt3__16vectorINS0_IfNS_9allocatorIfEEEENS1_IS3_EEE21__push_back_slow_pathIRKS3_EEvOT_, symObjAddr: 0x9F10, symBinAddr: 0x10000B994, symSize: 0xD8 }
  - { offsetInCU: 0x1CBE6, offset: 0x1CBE6, size: 0x8, addend: 0x0, symName: __ZNSt3__117__compressed_pairIPNS_6vectorIfNS_9allocatorIfEEEENS2_IS4_EEE5firstB8ue170006Ev, symObjAddr: 0x9FE8, symBinAddr: 0x10000BA6C, symSize: 0x24 }
  - { offsetInCU: 0x1CC0B, offset: 0x1CC0B, size: 0x8, addend: 0x0, symName: __ZNSt3__122__compressed_pair_elemIPNS_6vectorIfNS_9allocatorIfEEEELi0ELb0EE5__getB8ue170006Ev, symObjAddr: 0xA00C, symBinAddr: 0x10000BA90, symSize: 0x14 }
  - { offsetInCU: 0x1CC49, offset: 0x1CC49, size: 0x8, addend: 0x0, symName: __ZNSt3__16vectorINS0_IfNS_9allocatorIfEEEENS1_IS3_EEE21_ConstructTransactionC1B8ue170006ERS5_m, symObjAddr: 0xA020, symBinAddr: 0x10000BAA4, symSize: 0x3C }
  - { offsetInCU: 0x1CC90, offset: 0x1CC90, size: 0x8, addend: 0x0, symName: __ZNSt3__116allocator_traitsINS_9allocatorINS_6vectorIfNS1_IfEEEEEEE9constructB8ue170006IS4_JRKS4_EvEEvRS5_PT_DpOT0_, symObjAddr: 0xA05C, symBinAddr: 0x10000BAE0, symSize: 0x34 }
  - { offsetInCU: 0x1CCE7, offset: 0x1CCE7, size: 0x8, addend: 0x0, symName: __ZNSt3__16vectorINS0_IfNS_9allocatorIfEEEENS1_IS3_EEE21_ConstructTransactionD1B8ue170006Ev, symObjAddr: 0xA090, symBinAddr: 0x10000BB14, symSize: 0x2C }
  - { offsetInCU: 0x1CD10, offset: 0x1CD10, size: 0x8, addend: 0x0, symName: __ZNSt3__16vectorINS0_IfNS_9allocatorIfEEEENS1_IS3_EEE21_ConstructTransactionC2B8ue170006ERS5_m, symObjAddr: 0xA0BC, symBinAddr: 0x10000BB40, symSize: 0x4C }
  - { offsetInCU: 0x1CD57, offset: 0x1CD57, size: 0x8, addend: 0x0, symName: __ZNSt3__19allocatorINS_6vectorIfNS0_IfEEEEE9constructB8ue170006IS3_JRKS3_EEEvPT_DpOT0_, symObjAddr: 0xA108, symBinAddr: 0x10000BB8C, symSize: 0x30 }
  - { offsetInCU: 0x1CDAC, offset: 0x1CDAC, size: 0x8, addend: 0x0, symName: __ZNSt3__16vectorIfNS_9allocatorIfEEEC1ERKS3_, symObjAddr: 0xA138, symBinAddr: 0x10000BBBC, symSize: 0x34 }
  - { offsetInCU: 0x1CDE6, offset: 0x1CDE6, size: 0x8, addend: 0x0, symName: __ZNSt3__16vectorIfNS_9allocatorIfEEEC2ERKS3_, symObjAddr: 0xA16C, symBinAddr: 0x10000BBF0, symSize: 0x94 }
  - { offsetInCU: 0x1CE20, offset: 0x1CE20, size: 0x8, addend: 0x0, symName: __ZNSt3__116allocator_traitsINS_9allocatorIfEEE37select_on_container_copy_constructionB8ue170006IS2_vvEES2_RKS2_, symObjAddr: 0xA200, symBinAddr: 0x10000BC84, symSize: 0x10 }
  - { offsetInCU: 0x1CE54, offset: 0x1CE54, size: 0x8, addend: 0x0, symName: __ZNSt3__117__compressed_pairIPfNS_9allocatorIfEEEC1B8ue170006IDnS3_EEOT_OT0_, symObjAddr: 0xA210, symBinAddr: 0x10000BC94, symSize: 0x3C }
  - { offsetInCU: 0x1CEAB, offset: 0x1CEAB, size: 0x8, addend: 0x0, symName: __ZNSt3__16vectorIfNS_9allocatorIfEEE16__init_with_sizeB8ue170006IPfS5_EEvT_T0_m, symObjAddr: 0xA24C, symBinAddr: 0x10000BCD0, symSize: 0xB8 }
  - { offsetInCU: 0x1CF1E, offset: 0x1CF1E, size: 0x8, addend: 0x0, symName: __ZNSt3__117__compressed_pairIPfNS_9allocatorIfEEEC2B8ue170006IDnS3_EEOT_OT0_, symObjAddr: 0xA304, symBinAddr: 0x10000BD88, symSize: 0x44 }
  - { offsetInCU: 0x1CF75, offset: 0x1CF75, size: 0x8, addend: 0x0, symName: __ZNSt3__122__compressed_pair_elemINS_9allocatorIfEELi1ELb1EEC2B8ue170006IS2_vEEOT_, symObjAddr: 0xA348, symBinAddr: 0x10000BDCC, symSize: 0x18 }
  - { offsetInCU: 0x1CFB6, offset: 0x1CFB6, size: 0x8, addend: 0x0, symName: __ZNSt3__16vectorIfNS_9allocatorIfEEE11__vallocateB8ue170006Em, symObjAddr: 0xA3A0, symBinAddr: 0x10000BE24, symSize: 0xAC }
  - { offsetInCU: 0x1CFF8, offset: 0x1CFF8, size: 0x8, addend: 0x0, symName: __ZNSt3__16vectorIfNS_9allocatorIfEEE18__construct_at_endIPfS5_EEvT_T0_m, symObjAddr: 0xA44C, symBinAddr: 0x10000BED0, symSize: 0x8C }
  - { offsetInCU: 0x1D06D, offset: 0x1D06D, size: 0x8, addend: 0x0, symName: __ZNSt3__128__exception_guard_exceptionsINS_6vectorIfNS_9allocatorIfEEE16__destroy_vectorEE10__completeB8ue170006Ev, symObjAddr: 0xA4D8, symBinAddr: 0x10000BF5C, symSize: 0x1C }
  - { offsetInCU: 0x1D092, offset: 0x1D092, size: 0x8, addend: 0x0, symName: __ZNSt3__128__exception_guard_exceptionsINS_6vectorIfNS_9allocatorIfEEE16__destroy_vectorEED1B8ue170006Ev, symObjAddr: 0xA4F4, symBinAddr: 0x10000BF78, symSize: 0x2C }
  - { offsetInCU: 0x1D0BB, offset: 0x1D0BB, size: 0x8, addend: 0x0, symName: __ZNSt3__128__exception_guard_exceptionsINS_6vectorIfNS_9allocatorIfEEE16__destroy_vectorEEC1B8ue170006ES5_, symObjAddr: 0xA520, symBinAddr: 0x10000BFA4, symSize: 0x34 }
  - { offsetInCU: 0x1D0F2, offset: 0x1D0F2, size: 0x8, addend: 0x0, symName: __ZNSt3__128__exception_guard_exceptionsINS_6vectorIfNS_9allocatorIfEEE16__destroy_vectorEEC2B8ue170006ES5_, symObjAddr: 0xA554, symBinAddr: 0x10000BFD8, symSize: 0x24 }
  - { offsetInCU: 0x1D147, offset: 0x1D147, size: 0x8, addend: 0x0, symName: __ZNSt3__14pairIPfS1_EC1B8ue170006IS1_S1_LPv0EEEOT_OT0_, symObjAddr: 0xA728, symBinAddr: 0x10000C1AC, symSize: 0x3C }
  - { offsetInCU: 0x1D1A4, offset: 0x1D1A4, size: 0x8, addend: 0x0, symName: __ZNSt3__14pairIPfS1_EC2B8ue170006IS1_S1_LPv0EEEOT_OT0_, symObjAddr: 0xA764, symBinAddr: 0x10000C1E8, symSize: 0x34 }
  - { offsetInCU: 0x1D201, offset: 0x1D201, size: 0x8, addend: 0x0, symName: __ZNKSt3__114__copy_trivialclB8ue170006IffLi0EEENS_4pairIPT_PT0_EES4_S4_S6_, symObjAddr: 0xA914, symBinAddr: 0x10000C398, symSize: 0x48 }
  - { offsetInCU: 0x1D268, offset: 0x1D268, size: 0x8, addend: 0x0, symName: __ZNSt3__14pairIPfS1_EC1B8ue170006IRS1_S1_LPv0EEEOT_OT0_, symObjAddr: 0xAAA4, symBinAddr: 0x10000C528, symSize: 0x3C }
  - { offsetInCU: 0x1D2C5, offset: 0x1D2C5, size: 0x8, addend: 0x0, symName: __ZNSt3__14pairIPfS1_EC2B8ue170006IRS1_S1_LPv0EEEOT_OT0_, symObjAddr: 0xAAE0, symBinAddr: 0x10000C564, symSize: 0x34 }
  - { offsetInCU: 0x1D322, offset: 0x1D322, size: 0x8, addend: 0x0, symName: __ZNSt3__118__unwrap_iter_implIPfLb1EE8__unwrapB8ue170006ES1_, symObjAddr: 0xAB14, symBinAddr: 0x10000C598, symSize: 0x24 }
  - { offsetInCU: 0x1D345, offset: 0x1D345, size: 0x8, addend: 0x0, symName: __ZNSt3__118__unwrap_iter_implIPfLb1EE8__rewrapB8ue170006ES1_S1_, symObjAddr: 0xAB38, symBinAddr: 0x10000C5BC, symSize: 0x50 }
  - { offsetInCU: 0x1D376, offset: 0x1D376, size: 0x8, addend: 0x0, symName: __ZNSt3__128__exception_guard_exceptionsINS_6vectorIfNS_9allocatorIfEEE16__destroy_vectorEED2B8ue170006Ev, symObjAddr: 0xAB88, symBinAddr: 0x10000C60C, symSize: 0x48 }
  - { offsetInCU: 0x1D39F, offset: 0x1D39F, size: 0x8, addend: 0x0, symName: __ZNSt3__16vectorINS0_IfNS_9allocatorIfEEEENS1_IS3_EEE21_ConstructTransactionD2B8ue170006Ev, symObjAddr: 0xABD0, symBinAddr: 0x10000C654, symSize: 0x20 }
  - { offsetInCU: 0x1D3C7, offset: 0x1D3C7, size: 0x8, addend: 0x0, symName: __ZNKSt3__16vectorINS0_IfNS_9allocatorIfEEEENS1_IS3_EEE11__recommendB8ue170006Em, symObjAddr: 0xABF0, symBinAddr: 0x10000C674, symSize: 0xB4 }
  - { offsetInCU: 0x1D41B, offset: 0x1D41B, size: 0x8, addend: 0x0, symName: __ZNSt3__114__split_bufferINS_6vectorIfNS_9allocatorIfEEEERNS2_IS4_EEEC1EmmS6_, symObjAddr: 0xACA4, symBinAddr: 0x10000C728, symSize: 0x44 }
  - { offsetInCU: 0x1D470, offset: 0x1D470, size: 0x8, addend: 0x0, symName: __ZNSt3__114__split_bufferINS_6vectorIfNS_9allocatorIfEEEERNS2_IS4_EEED1Ev, symObjAddr: 0xADF8, symBinAddr: 0x10000C87C, symSize: 0x2C }
  - { offsetInCU: 0x1D49A, offset: 0x1D49A, size: 0x8, addend: 0x0, symName: __ZNKSt3__16vectorINS0_IfNS_9allocatorIfEEEENS1_IS3_EEE8max_sizeEv, symObjAddr: 0xAE24, symBinAddr: 0x10000C8A8, symSize: 0x60 }
  - { offsetInCU: 0x1D4C1, offset: 0x1D4C1, size: 0x8, addend: 0x0, symName: __ZNKSt3__16vectorINS0_IfNS_9allocatorIfEEEENS1_IS3_EEE20__throw_length_errorB8ue170006Ev, symObjAddr: 0xAE84, symBinAddr: 0x10000C908, symSize: 0x1C }
  - { offsetInCU: 0x1D4F0, offset: 0x1D4F0, size: 0x8, addend: 0x0, symName: __ZNSt3__116allocator_traitsINS_9allocatorINS_6vectorIfNS1_IfEEEEEEE8max_sizeB8ue170006IS5_vEEmRKS5_, symObjAddr: 0xAEA0, symBinAddr: 0x10000C924, symSize: 0x24 }
  - { offsetInCU: 0x1D51E, offset: 0x1D51E, size: 0x8, addend: 0x0, symName: __ZNKSt3__16vectorINS0_IfNS_9allocatorIfEEEENS1_IS3_EEE7__allocB8ue170006Ev, symObjAddr: 0xAEC4, symBinAddr: 0x10000C948, symSize: 0x28 }
  - { offsetInCU: 0x1D543, offset: 0x1D543, size: 0x8, addend: 0x0, symName: __ZNKSt3__19allocatorINS_6vectorIfNS0_IfEEEEE8max_sizeB8ue170006Ev, symObjAddr: 0xAEEC, symBinAddr: 0x10000C970, symSize: 0x18 }
  - { offsetInCU: 0x1D568, offset: 0x1D568, size: 0x8, addend: 0x0, symName: __ZNKSt3__117__compressed_pairIPNS_6vectorIfNS_9allocatorIfEEEENS2_IS4_EEE6secondB8ue170006Ev, symObjAddr: 0xAF04, symBinAddr: 0x10000C988, symSize: 0x24 }
  - { offsetInCU: 0x1D58D, offset: 0x1D58D, size: 0x8, addend: 0x0, symName: __ZNKSt3__122__compressed_pair_elemINS_9allocatorINS_6vectorIfNS1_IfEEEEEELi1ELb1EE5__getB8ue170006Ev, symObjAddr: 0xAF28, symBinAddr: 0x10000C9AC, symSize: 0x14 }
  - { offsetInCU: 0x1D5B2, offset: 0x1D5B2, size: 0x8, addend: 0x0, symName: __ZNSt3__114__split_bufferINS_6vectorIfNS_9allocatorIfEEEERNS2_IS4_EEEC2EmmS6_, symObjAddr: 0xAF3C, symBinAddr: 0x10000C9C0, symSize: 0xE0 }
  - { offsetInCU: 0x1D625, offset: 0x1D625, size: 0x8, addend: 0x0, symName: __ZNSt3__117__compressed_pairIPNS_6vectorIfNS_9allocatorIfEEEERNS2_IS4_EEEC1B8ue170006IDnS7_EEOT_OT0_, symObjAddr: 0xB01C, symBinAddr: 0x10000CAA0, symSize: 0x3C }
  - { offsetInCU: 0x1D67C, offset: 0x1D67C, size: 0x8, addend: 0x0, symName: __ZNSt3__114__split_bufferINS_6vectorIfNS_9allocatorIfEEEERNS2_IS4_EEE7__allocB8ue170006Ev, symObjAddr: 0xB098, symBinAddr: 0x10000CB1C, symSize: 0x28 }
  - { offsetInCU: 0x1D6A1, offset: 0x1D6A1, size: 0x8, addend: 0x0, symName: __ZNSt3__114__split_bufferINS_6vectorIfNS_9allocatorIfEEEERNS2_IS4_EEE9__end_capB8ue170006Ev, symObjAddr: 0xB0C0, symBinAddr: 0x10000CB44, symSize: 0x28 }
  - { offsetInCU: 0x1D6C6, offset: 0x1D6C6, size: 0x8, addend: 0x0, symName: __ZNSt3__117__compressed_pairIPNS_6vectorIfNS_9allocatorIfEEEERNS2_IS4_EEEC2B8ue170006IDnS7_EEOT_OT0_, symObjAddr: 0xB0E8, symBinAddr: 0x10000CB6C, symSize: 0x48 }
  - { offsetInCU: 0x1D71D, offset: 0x1D71D, size: 0x8, addend: 0x0, symName: __ZNSt3__122__compressed_pair_elemIRNS_9allocatorINS_6vectorIfNS1_IfEEEEEELi1ELb0EEC2B8ue170006IS6_vEEOT_, symObjAddr: 0xB130, symBinAddr: 0x10000CBB4, symSize: 0x20 }
  - { offsetInCU: 0x1D75E, offset: 0x1D75E, size: 0x8, addend: 0x0, symName: __ZNSt3__19allocatorINS_6vectorIfNS0_IfEEEEE8allocateB8ue170006Em, symObjAddr: 0xB150, symBinAddr: 0x10000CBD4, symSize: 0x5C }
  - { offsetInCU: 0x1D791, offset: 0x1D791, size: 0x8, addend: 0x0, symName: __ZNSt3__117__compressed_pairIPNS_6vectorIfNS_9allocatorIfEEEERNS2_IS4_EEE6secondB8ue170006Ev, symObjAddr: 0xB1AC, symBinAddr: 0x10000CC30, symSize: 0x28 }
  - { offsetInCU: 0x1D7B6, offset: 0x1D7B6, size: 0x8, addend: 0x0, symName: __ZNSt3__122__compressed_pair_elemIRNS_9allocatorINS_6vectorIfNS1_IfEEEEEELi1ELb0EE5__getB8ue170006Ev, symObjAddr: 0xB1D4, symBinAddr: 0x10000CC58, symSize: 0x18 }
  - { offsetInCU: 0x1D7DB, offset: 0x1D7DB, size: 0x8, addend: 0x0, symName: __ZNSt3__117__compressed_pairIPNS_6vectorIfNS_9allocatorIfEEEERNS2_IS4_EEE5firstB8ue170006Ev, symObjAddr: 0xB1EC, symBinAddr: 0x10000CC70, symSize: 0x24 }
  - { offsetInCU: 0x1D800, offset: 0x1D800, size: 0x8, addend: 0x0, symName: __ZNSt3__116reverse_iteratorIPNS_6vectorIfNS_9allocatorIfEEEEEC1B8ue170006ES5_, symObjAddr: 0xB33C, symBinAddr: 0x10000CDC0, symSize: 0x34 }
  - { offsetInCU: 0x1D837, offset: 0x1D837, size: 0x8, addend: 0x0, symName: __ZNKSt3__116reverse_iteratorIPNS_6vectorIfNS_9allocatorIfEEEEE4baseB8ue170006Ev, symObjAddr: 0xB370, symBinAddr: 0x10000CDF4, symSize: 0x18 }
  - { offsetInCU: 0x1D85C, offset: 0x1D85C, size: 0x8, addend: 0x0, symName: __ZNKSt3__16vectorINS0_IfNS_9allocatorIfEEEENS1_IS3_EEE14__annotate_newB8ue170006Em, symObjAddr: 0xB3C4, symBinAddr: 0x10000CE48, symSize: 0xC8 }
  - { offsetInCU: 0x1D890, offset: 0x1D890, size: 0x8, addend: 0x0, symName: __ZNSt3__129_AllocatorDestroyRangeReverseINS_9allocatorINS_6vectorIfNS1_IfEEEEEENS_16reverse_iteratorIPS4_EEEC1B8ue170006ERS5_RS8_SB_, symObjAddr: 0xB4D8, symBinAddr: 0x10000CF5C, symSize: 0x44 }
  - { offsetInCU: 0x1D8E6, offset: 0x1D8E6, size: 0x8, addend: 0x0, symName: __ZNSt3__116allocator_traitsINS_9allocatorINS_6vectorIfNS1_IfEEEEEEE9constructB8ue170006IS4_JS4_EvEEvRS5_PT_DpOT0_, symObjAddr: 0xB564, symBinAddr: 0x10000CFE8, symSize: 0x34 }
  - { offsetInCU: 0x1D93D, offset: 0x1D93D, size: 0x8, addend: 0x0, symName: __ZNKSt3__116reverse_iteratorIPNS_6vectorIfNS_9allocatorIfEEEEEdeB8ue170006Ev, symObjAddr: 0xB5BC, symBinAddr: 0x10000D040, symSize: 0x28 }
  - { offsetInCU: 0x1D970, offset: 0x1D970, size: 0x8, addend: 0x0, symName: __ZNSt3__116reverse_iteratorIPNS_6vectorIfNS_9allocatorIfEEEEEppB8ue170006Ev, symObjAddr: 0xB5E4, symBinAddr: 0x10000D068, symSize: 0x20 }
  - { offsetInCU: 0x1D995, offset: 0x1D995, size: 0x8, addend: 0x0, symName: __ZNSt3__128__exception_guard_exceptionsINS_29_AllocatorDestroyRangeReverseINS_9allocatorINS_6vectorIfNS2_IfEEEEEENS_16reverse_iteratorIPS5_EEEEE10__completeB8ue170006Ev, symObjAddr: 0xB604, symBinAddr: 0x10000D088, symSize: 0x1C }
  - { offsetInCU: 0x1D9BA, offset: 0x1D9BA, size: 0x8, addend: 0x0, symName: __ZNSt3__128__exception_guard_exceptionsINS_29_AllocatorDestroyRangeReverseINS_9allocatorINS_6vectorIfNS2_IfEEEEEENS_16reverse_iteratorIPS5_EEEEED1B8ue170006Ev, symObjAddr: 0xB620, symBinAddr: 0x10000D0A4, symSize: 0x2C }
  - { offsetInCU: 0x1D9E3, offset: 0x1D9E3, size: 0x8, addend: 0x0, symName: __ZNSt3__128__exception_guard_exceptionsINS_29_AllocatorDestroyRangeReverseINS_9allocatorINS_6vectorIfNS2_IfEEEEEENS_16reverse_iteratorIPS5_EEEEEC1B8ue170006ESA_, symObjAddr: 0xB64C, symBinAddr: 0x10000D0D0, symSize: 0x34 }
  - { offsetInCU: 0x1DA1B, offset: 0x1DA1B, size: 0x8, addend: 0x0, symName: __ZNSt3__128__exception_guard_exceptionsINS_29_AllocatorDestroyRangeReverseINS_9allocatorINS_6vectorIfNS2_IfEEEEEENS_16reverse_iteratorIPS5_EEEEEC2B8ue170006ESA_, symObjAddr: 0xB680, symBinAddr: 0x10000D104, symSize: 0x30 }
  - { offsetInCU: 0x1DA53, offset: 0x1DA53, size: 0x8, addend: 0x0, symName: __ZNSt3__129_AllocatorDestroyRangeReverseINS_9allocatorINS_6vectorIfNS1_IfEEEEEENS_16reverse_iteratorIPS4_EEEC2B8ue170006ERS5_RS8_SB_, symObjAddr: 0xB6B0, symBinAddr: 0x10000D134, symSize: 0x38 }
  - { offsetInCU: 0x1DAA9, offset: 0x1DAA9, size: 0x8, addend: 0x0, symName: __ZNSt3__19allocatorINS_6vectorIfNS0_IfEEEEE9constructB8ue170006IS3_JS3_EEEvPT_DpOT0_, symObjAddr: 0xB6E8, symBinAddr: 0x10000D16C, symSize: 0x30 }
  - { offsetInCU: 0x1DAFE, offset: 0x1DAFE, size: 0x8, addend: 0x0, symName: __ZNSt3__16vectorIfNS_9allocatorIfEEEC1B8ue170006EOS3_, symObjAddr: 0xB718, symBinAddr: 0x10000D19C, symSize: 0x34 }
  - { offsetInCU: 0x1DB38, offset: 0x1DB38, size: 0x8, addend: 0x0, symName: __ZNSt3__16vectorIfNS_9allocatorIfEEEC2B8ue170006EOS3_, symObjAddr: 0xB74C, symBinAddr: 0x10000D1D0, symSize: 0xC4 }
  - { offsetInCU: 0x1DB77, offset: 0x1DB77, size: 0x8, addend: 0x0, symName: __ZNSt3__119__to_address_helperINS_16reverse_iteratorIPNS_6vectorIfNS_9allocatorIfEEEEEEvE6__callB8ue170006ERKS7_, symObjAddr: 0xB810, symBinAddr: 0x10000D294, symSize: 0x38 }
  - { offsetInCU: 0x1DB9A, offset: 0x1DB9A, size: 0x8, addend: 0x0, symName: __ZNKSt3__116reverse_iteratorIPNS_6vectorIfNS_9allocatorIfEEEEEptB8ue170006Ev, symObjAddr: 0xB848, symBinAddr: 0x10000D2CC, symSize: 0x24 }
  - { offsetInCU: 0x1DBBF, offset: 0x1DBBF, size: 0x8, addend: 0x0, symName: __ZNSt3__128__exception_guard_exceptionsINS_29_AllocatorDestroyRangeReverseINS_9allocatorINS_6vectorIfNS2_IfEEEEEENS_16reverse_iteratorIPS5_EEEEED2B8ue170006Ev, symObjAddr: 0xB86C, symBinAddr: 0x10000D2F0, symSize: 0x50 }
  - { offsetInCU: 0x1DBE8, offset: 0x1DBE8, size: 0x8, addend: 0x0, symName: __ZNKSt3__129_AllocatorDestroyRangeReverseINS_9allocatorINS_6vectorIfNS1_IfEEEEEENS_16reverse_iteratorIPS4_EEEclB8ue170006Ev, symObjAddr: 0xB8BC, symBinAddr: 0x10000D340, symSize: 0xB4 }
  - { offsetInCU: 0x1DC0E, offset: 0x1DC0E, size: 0x8, addend: 0x0, symName: __ZNSt3__116reverse_iteratorINS0_IPNS_6vectorIfNS_9allocatorIfEEEEEEEC1B8ue170006ES6_, symObjAddr: 0xB9E0, symBinAddr: 0x10000D464, symSize: 0x3C }
  - { offsetInCU: 0x1DC45, offset: 0x1DC45, size: 0x8, addend: 0x0, symName: __ZNSt3__116reverse_iteratorINS0_IPNS_6vectorIfNS_9allocatorIfEEEEEEEppB8ue170006Ev, symObjAddr: 0xBAA0, symBinAddr: 0x10000D524, symSize: 0x30 }
  - { offsetInCU: 0x1DC6A, offset: 0x1DC6A, size: 0x8, addend: 0x0, symName: __ZNKSt3__116reverse_iteratorINS0_IPNS_6vectorIfNS_9allocatorIfEEEEEEE4baseB8ue170006Ev, symObjAddr: 0xBAD0, symBinAddr: 0x10000D554, symSize: 0x24 }
  - { offsetInCU: 0x1DC94, offset: 0x1DC94, size: 0x8, addend: 0x0, symName: __ZNSt3__119__to_address_helperINS_16reverse_iteratorINS1_IPNS_6vectorIfNS_9allocatorIfEEEEEEEEvE6__callB8ue170006ERKS8_, symObjAddr: 0xBAF4, symBinAddr: 0x10000D578, symSize: 0x38 }
  - { offsetInCU: 0x1DCB7, offset: 0x1DCB7, size: 0x8, addend: 0x0, symName: __ZNKSt3__116reverse_iteratorINS0_IPNS_6vectorIfNS_9allocatorIfEEEEEEEptB8ue170006Ev, symObjAddr: 0xBB2C, symBinAddr: 0x10000D5B0, symSize: 0x24 }
  - { offsetInCU: 0x1DCDC, offset: 0x1DCDC, size: 0x8, addend: 0x0, symName: __ZNKSt3__116reverse_iteratorINS0_IPNS_6vectorIfNS_9allocatorIfEEEEEEEdeB8ue170006Ev, symObjAddr: 0xBB50, symBinAddr: 0x10000D5D4, symSize: 0x34 }
  - { offsetInCU: 0x1DD0F, offset: 0x1DD0F, size: 0x8, addend: 0x0, symName: __ZNSt3__116reverse_iteratorIPNS_6vectorIfNS_9allocatorIfEEEEEmmB8ue170006Ev, symObjAddr: 0xBB84, symBinAddr: 0x10000D608, symSize: 0x20 }
  - { offsetInCU: 0x1DD34, offset: 0x1DD34, size: 0x8, addend: 0x0, symName: __ZNSt3__116reverse_iteratorINS0_IPNS_6vectorIfNS_9allocatorIfEEEEEEEC2B8ue170006ES6_, symObjAddr: 0xBBA4, symBinAddr: 0x10000D628, symSize: 0x2C }
  - { offsetInCU: 0x1DD6B, offset: 0x1DD6B, size: 0x8, addend: 0x0, symName: __ZNSt3__116reverse_iteratorIPNS_6vectorIfNS_9allocatorIfEEEEEC2B8ue170006ES5_, symObjAddr: 0xBBD0, symBinAddr: 0x10000D654, symSize: 0x28 }
  - { offsetInCU: 0x1DDA2, offset: 0x1DDA2, size: 0x8, addend: 0x0, symName: __ZNSt3__114__split_bufferINS_6vectorIfNS_9allocatorIfEEEERNS2_IS4_EEED2Ev, symObjAddr: 0xBBF8, symBinAddr: 0x10000D67C, symSize: 0x8C }
  - { offsetInCU: 0x1DDCD, offset: 0x1DDCD, size: 0x8, addend: 0x0, symName: __ZNSt3__114__split_bufferINS_6vectorIfNS_9allocatorIfEEEERNS2_IS4_EEE5clearB8ue170006Ev, symObjAddr: 0xBC84, symBinAddr: 0x10000D708, symSize: 0x28 }
  - { offsetInCU: 0x1DDF2, offset: 0x1DDF2, size: 0x8, addend: 0x0, symName: __ZNKSt3__114__split_bufferINS_6vectorIfNS_9allocatorIfEEEERNS2_IS4_EEE8capacityB8ue170006Ev, symObjAddr: 0xBCAC, symBinAddr: 0x10000D730, symSize: 0x40 }
  - { offsetInCU: 0x1DE17, offset: 0x1DE17, size: 0x8, addend: 0x0, symName: __ZNSt3__114__split_bufferINS_6vectorIfNS_9allocatorIfEEEERNS2_IS4_EEE17__destruct_at_endB8ue170006EPS4_, symObjAddr: 0xBCEC, symBinAddr: 0x10000D770, symSize: 0x2C }
  - { offsetInCU: 0x1DE49, offset: 0x1DE49, size: 0x8, addend: 0x0, symName: __ZNSt3__114__split_bufferINS_6vectorIfNS_9allocatorIfEEEERNS2_IS4_EEE17__destruct_at_endB8ue170006EPS4_NS_17integral_constantIbLb0EEE, symObjAddr: 0xBD18, symBinAddr: 0x10000D79C, symSize: 0x80 }
  - { offsetInCU: 0x1DE88, offset: 0x1DE88, size: 0x8, addend: 0x0, symName: __ZNKSt3__114__split_bufferINS_6vectorIfNS_9allocatorIfEEEERNS2_IS4_EEE9__end_capB8ue170006Ev, symObjAddr: 0xBD98, symBinAddr: 0x10000D81C, symSize: 0x28 }
  - { offsetInCU: 0x1DEAD, offset: 0x1DEAD, size: 0x8, addend: 0x0, symName: __ZNKSt3__117__compressed_pairIPNS_6vectorIfNS_9allocatorIfEEEERNS2_IS4_EEE5firstB8ue170006Ev, symObjAddr: 0xBDC0, symBinAddr: 0x10000D844, symSize: 0x24 }
  - { offsetInCU: 0x1DED2, offset: 0x1DED2, size: 0x8, addend: 0x0, symName: __ZNSt3__16vectorIfNS_9allocatorIfEEEC2Em, symObjAddr: 0xBDE4, symBinAddr: 0x10000D868, symSize: 0xD4 }
  - { offsetInCU: 0x1DF20, offset: 0x1DF20, size: 0x8, addend: 0x0, symName: __ZNSt3__16vectorIfNS_9allocatorIfEEE18__construct_at_endEm, symObjAddr: 0xBEB8, symBinAddr: 0x10000D93C, symSize: 0xC8 }
  - { offsetInCU: 0x1DF92, offset: 0x1DF92, size: 0x8, addend: 0x0, symName: __ZNSt3__116allocator_traitsINS_9allocatorIfEEE9constructB8ue170006IfJEvEEvRS2_PT_DpOT0_, symObjAddr: 0xBF80, symBinAddr: 0x10000DA04, symSize: 0x2C }
  - { offsetInCU: 0x1DFD4, offset: 0x1DFD4, size: 0x8, addend: 0x0, symName: __ZNSt3__19allocatorIfE9constructB8ue170006IfJEEEvPT_DpOT0_, symObjAddr: 0xBFAC, symBinAddr: 0x10000DA30, symSize: 0x20 }
  - { offsetInCU: 0x1E014, offset: 0x1E014, size: 0x8, addend: 0x0, symName: __ZNSt3__16vectorIfNS_9allocatorIfEEE13__move_assignERS3_NS_17integral_constantIbLb1EEE, symObjAddr: 0xBFCC, symBinAddr: 0x10000DA50, symSize: 0x94 }
  - { offsetInCU: 0x1E054, offset: 0x1E054, size: 0x8, addend: 0x0, symName: __ZNSt3__16vectorIfNS_9allocatorIfEEE13__vdeallocateEv, symObjAddr: 0xC060, symBinAddr: 0x10000DAE4, symSize: 0x94 }
  - { offsetInCU: 0x1E07B, offset: 0x1E07B, size: 0x8, addend: 0x0, symName: __ZNSt3__16vectorIfNS_9allocatorIfEEE19__move_assign_allocB8ue170006ERS3_, symObjAddr: 0xC0F4, symBinAddr: 0x10000DB78, symSize: 0x2C }
  - { offsetInCU: 0x1E0AF, offset: 0x1E0AF, size: 0x8, addend: 0x0, symName: __ZNSt3__16vectorIfNS_9allocatorIfEEE5clearB8ue170006Ev, symObjAddr: 0xC120, symBinAddr: 0x10000DBA4, symSize: 0x44 }
  - { offsetInCU: 0x1E0E3, offset: 0x1E0E3, size: 0x8, addend: 0x0, symName: __ZNKSt3__16vectorIfNS_9allocatorIfEEE17__annotate_shrinkB8ue170006Em, symObjAddr: 0xC164, symBinAddr: 0x10000DBE8, symSize: 0xB4 }
  - { offsetInCU: 0x1E117, offset: 0x1E117, size: 0x8, addend: 0x0, symName: __ZNSt3__16vectorIfNS_9allocatorIfEEE19__move_assign_allocB8ue170006ERS3_NS_17integral_constantIbLb1EEE, symObjAddr: 0xC218, symBinAddr: 0x10000DC9C, symSize: 0x38 }
  - { offsetInCU: 0x1E156, offset: 0x1E156, size: 0x8, addend: 0x0, symName: __ZNSt3__16vectorIP8MushroomNS_9allocatorIS2_EEE22__construct_one_at_endB8ue170006IJRKS2_EEEvDpOT_, symObjAddr: 0xC250, symBinAddr: 0x10000DCD4, symSize: 0x90 }
  - { offsetInCU: 0x1E1A3, offset: 0x1E1A3, size: 0x8, addend: 0x0, symName: __ZNSt3__16vectorIP8MushroomNS_9allocatorIS2_EEE21__push_back_slow_pathIRKS2_EEvOT_, symObjAddr: 0xC2E0, symBinAddr: 0x10000DD64, symSize: 0xD8 }
  - { offsetInCU: 0x1E219, offset: 0x1E219, size: 0x8, addend: 0x0, symName: __ZNSt3__16vectorIP8MushroomNS_9allocatorIS2_EEE21_ConstructTransactionC1B8ue170006ERS5_m, symObjAddr: 0xC3B8, symBinAddr: 0x10000DE3C, symSize: 0x3C }
  - { offsetInCU: 0x1E260, offset: 0x1E260, size: 0x8, addend: 0x0, symName: __ZNSt3__116allocator_traitsINS_9allocatorIP8MushroomEEE9constructB8ue170006IS3_JRKS3_EvEEvRS4_PT_DpOT0_, symObjAddr: 0xC3F4, symBinAddr: 0x10000DE78, symSize: 0x34 }
  - { offsetInCU: 0x1E2B7, offset: 0x1E2B7, size: 0x8, addend: 0x0, symName: __ZNSt3__16vectorIP8MushroomNS_9allocatorIS2_EEE21_ConstructTransactionD1B8ue170006Ev, symObjAddr: 0xC428, symBinAddr: 0x10000DEAC, symSize: 0x2C }
  - { offsetInCU: 0x1E2E0, offset: 0x1E2E0, size: 0x8, addend: 0x0, symName: __ZNSt3__16vectorIP8MushroomNS_9allocatorIS2_EEE21_ConstructTransactionC2B8ue170006ERS5_m, symObjAddr: 0xC454, symBinAddr: 0x10000DED8, symSize: 0x44 }
  - { offsetInCU: 0x1E327, offset: 0x1E327, size: 0x8, addend: 0x0, symName: __ZNSt3__19allocatorIP8MushroomE9constructB8ue170006IS2_JRKS2_EEEvPT_DpOT0_, symObjAddr: 0xC498, symBinAddr: 0x10000DF1C, symSize: 0x28 }
  - { offsetInCU: 0x1E37C, offset: 0x1E37C, size: 0x8, addend: 0x0, symName: __ZNSt3__16vectorIP8MushroomNS_9allocatorIS2_EEE21_ConstructTransactionD2B8ue170006Ev, symObjAddr: 0xC4C0, symBinAddr: 0x10000DF44, symSize: 0x20 }
  - { offsetInCU: 0x1E3A4, offset: 0x1E3A4, size: 0x8, addend: 0x0, symName: __ZNKSt3__16vectorIP8MushroomNS_9allocatorIS2_EEE11__recommendB8ue170006Em, symObjAddr: 0xC4E0, symBinAddr: 0x10000DF64, symSize: 0xB4 }
  - { offsetInCU: 0x1E3F8, offset: 0x1E3F8, size: 0x8, addend: 0x0, symName: __ZNSt3__114__split_bufferIP8MushroomRNS_9allocatorIS2_EEEC1EmmS5_, symObjAddr: 0xC594, symBinAddr: 0x10000E018, symSize: 0x44 }
  - { offsetInCU: 0x1E44D, offset: 0x1E44D, size: 0x8, addend: 0x0, symName: __ZNSt3__114__split_bufferIP8MushroomRNS_9allocatorIS2_EEED1Ev, symObjAddr: 0xC6E8, symBinAddr: 0x10000E16C, symSize: 0x2C }
  - { offsetInCU: 0x1E477, offset: 0x1E477, size: 0x8, addend: 0x0, symName: __ZNKSt3__16vectorIP8MushroomNS_9allocatorIS2_EEE8max_sizeEv, symObjAddr: 0xC714, symBinAddr: 0x10000E198, symSize: 0x60 }
  - { offsetInCU: 0x1E49E, offset: 0x1E49E, size: 0x8, addend: 0x0, symName: __ZNKSt3__16vectorIP8MushroomNS_9allocatorIS2_EEE20__throw_length_errorB8ue170006Ev, symObjAddr: 0xC774, symBinAddr: 0x10000E1F8, symSize: 0x1C }
  - { offsetInCU: 0x1E4CD, offset: 0x1E4CD, size: 0x8, addend: 0x0, symName: __ZNSt3__116allocator_traitsINS_9allocatorIP8MushroomEEE8max_sizeB8ue170006IS4_vEEmRKS4_, symObjAddr: 0xC790, symBinAddr: 0x10000E214, symSize: 0x24 }
  - { offsetInCU: 0x1E4FB, offset: 0x1E4FB, size: 0x8, addend: 0x0, symName: __ZNKSt3__16vectorIP8MushroomNS_9allocatorIS2_EEE7__allocB8ue170006Ev, symObjAddr: 0xC7B4, symBinAddr: 0x10000E238, symSize: 0x28 }
  - { offsetInCU: 0x1E520, offset: 0x1E520, size: 0x8, addend: 0x0, symName: __ZNKSt3__19allocatorIP8MushroomE8max_sizeB8ue170006Ev, symObjAddr: 0xC7DC, symBinAddr: 0x10000E260, symSize: 0x14 }
  - { offsetInCU: 0x1E545, offset: 0x1E545, size: 0x8, addend: 0x0, symName: __ZNKSt3__117__compressed_pairIPP8MushroomNS_9allocatorIS2_EEE6secondB8ue170006Ev, symObjAddr: 0xC7F0, symBinAddr: 0x10000E274, symSize: 0x24 }
  - { offsetInCU: 0x1E56A, offset: 0x1E56A, size: 0x8, addend: 0x0, symName: __ZNKSt3__122__compressed_pair_elemINS_9allocatorIP8MushroomEELi1ELb1EE5__getB8ue170006Ev, symObjAddr: 0xC814, symBinAddr: 0x10000E298, symSize: 0x14 }
  - { offsetInCU: 0x1E58F, offset: 0x1E58F, size: 0x8, addend: 0x0, symName: __ZNSt3__114__split_bufferIP8MushroomRNS_9allocatorIS2_EEEC2EmmS5_, symObjAddr: 0xC828, symBinAddr: 0x10000E2AC, symSize: 0xD4 }
  - { offsetInCU: 0x1E602, offset: 0x1E602, size: 0x8, addend: 0x0, symName: __ZNSt3__117__compressed_pairIPP8MushroomRNS_9allocatorIS2_EEEC1B8ue170006IDnS6_EEOT_OT0_, symObjAddr: 0xC8FC, symBinAddr: 0x10000E380, symSize: 0x3C }
  - { offsetInCU: 0x1E659, offset: 0x1E659, size: 0x8, addend: 0x0, symName: __ZNSt3__114__split_bufferIP8MushroomRNS_9allocatorIS2_EEE7__allocB8ue170006Ev, symObjAddr: 0xC978, symBinAddr: 0x10000E3FC, symSize: 0x28 }
  - { offsetInCU: 0x1E67E, offset: 0x1E67E, size: 0x8, addend: 0x0, symName: __ZNSt3__114__split_bufferIP8MushroomRNS_9allocatorIS2_EEE9__end_capB8ue170006Ev, symObjAddr: 0xC9A0, symBinAddr: 0x10000E424, symSize: 0x28 }
  - { offsetInCU: 0x1E6A3, offset: 0x1E6A3, size: 0x8, addend: 0x0, symName: __ZNSt3__117__compressed_pairIPP8MushroomRNS_9allocatorIS2_EEEC2B8ue170006IDnS6_EEOT_OT0_, symObjAddr: 0xC9C8, symBinAddr: 0x10000E44C, symSize: 0x48 }
  - { offsetInCU: 0x1E6FA, offset: 0x1E6FA, size: 0x8, addend: 0x0, symName: __ZNSt3__122__compressed_pair_elemIRNS_9allocatorIP8MushroomEELi1ELb0EEC2B8ue170006IS5_vEEOT_, symObjAddr: 0xCA10, symBinAddr: 0x10000E494, symSize: 0x20 }
  - { offsetInCU: 0x1E73B, offset: 0x1E73B, size: 0x8, addend: 0x0, symName: __ZNSt3__19allocatorIP8MushroomE8allocateB8ue170006Em, symObjAddr: 0xCA30, symBinAddr: 0x10000E4B4, symSize: 0x58 }
  - { offsetInCU: 0x1E76E, offset: 0x1E76E, size: 0x8, addend: 0x0, symName: __ZNSt3__117__compressed_pairIPP8MushroomRNS_9allocatorIS2_EEE6secondB8ue170006Ev, symObjAddr: 0xCA88, symBinAddr: 0x10000E50C, symSize: 0x28 }
  - { offsetInCU: 0x1E793, offset: 0x1E793, size: 0x8, addend: 0x0, symName: __ZNSt3__122__compressed_pair_elemIRNS_9allocatorIP8MushroomEELi1ELb0EE5__getB8ue170006Ev, symObjAddr: 0xCAB0, symBinAddr: 0x10000E534, symSize: 0x18 }
  - { offsetInCU: 0x1E7B8, offset: 0x1E7B8, size: 0x8, addend: 0x0, symName: __ZNSt3__117__compressed_pairIPP8MushroomRNS_9allocatorIS2_EEE5firstB8ue170006Ev, symObjAddr: 0xCAC8, symBinAddr: 0x10000E54C, symSize: 0x24 }
  - { offsetInCU: 0x1E7DD, offset: 0x1E7DD, size: 0x8, addend: 0x0, symName: __ZNSt3__116reverse_iteratorIPP8MushroomEC1B8ue170006ES3_, symObjAddr: 0xCB64, symBinAddr: 0x10000E5E8, symSize: 0x34 }
  - { offsetInCU: 0x1E814, offset: 0x1E814, size: 0x8, addend: 0x0, symName: __ZNKSt3__116reverse_iteratorIPP8MushroomE4baseB8ue170006Ev, symObjAddr: 0xCB98, symBinAddr: 0x10000E61C, symSize: 0x18 }
  - { offsetInCU: 0x1E839, offset: 0x1E839, size: 0x8, addend: 0x0, symName: __ZNKSt3__16vectorIP8MushroomNS_9allocatorIS2_EEE14__annotate_newB8ue170006Em, symObjAddr: 0xCBEC, symBinAddr: 0x10000E670, symSize: 0xAC }
  - { offsetInCU: 0x1E886, offset: 0x1E886, size: 0x8, addend: 0x0, symName: __ZNKSt3__111__move_loopINS_17_ClassicAlgPolicyEEclB8ue170006INS_16reverse_iteratorIPP8MushroomEES8_S8_EENS_4pairIT_T1_EESA_T0_SB_, symObjAddr: 0xCF88, symBinAddr: 0x10000EA0C, symSize: 0xA0 }
  - { offsetInCU: 0x1E8F5, offset: 0x1E8F5, size: 0x8, addend: 0x0, symName: __ZNSt3__18_IterOpsINS_17_ClassicAlgPolicyEE11__iter_moveB8ue170006IRNS_16reverse_iteratorIPP8MushroomEEEENS_9enable_ifIXsr12is_referenceIDTdeclsr3stdE7declvalIRT_EEEEE5valueEDTclsr3stdE4movedeclsr3stdE7declvalISC_EEEEE4typeEOSB_, symObjAddr: 0xD1BC, symBinAddr: 0x10000EC40, symSize: 0x28 }
  - { offsetInCU: 0x1E921, offset: 0x1E921, size: 0x8, addend: 0x0, symName: __ZNKSt3__116reverse_iteratorIPP8MushroomEdeB8ue170006Ev, symObjAddr: 0xD1E4, symBinAddr: 0x10000EC68, symSize: 0x28 }
  - { offsetInCU: 0x1E954, offset: 0x1E954, size: 0x8, addend: 0x0, symName: __ZNSt3__116reverse_iteratorIPP8MushroomEppB8ue170006Ev, symObjAddr: 0xD20C, symBinAddr: 0x10000EC90, symSize: 0x20 }
  - { offsetInCU: 0x1E979, offset: 0x1E979, size: 0x8, addend: 0x0, symName: __ZNSt3__18_IterOpsINS_17_ClassicAlgPolicyEE25__validate_iter_referenceB8ue170006IRNS_16reverse_iteratorIPP8MushroomEEEEvv, symObjAddr: 0xD22C, symBinAddr: 0x10000ECB0, symSize: 0x4 }
  - { offsetInCU: 0x1E997, offset: 0x1E997, size: 0x8, addend: 0x0, symName: __ZNSt3__118__unwrap_iter_implINS_16reverse_iteratorIPP8MushroomEELb0EE8__unwrapB8ue170006ES5_, symObjAddr: 0xD230, symBinAddr: 0x10000ECB4, symSize: 0x24 }
  - { offsetInCU: 0x1E9BF, offset: 0x1E9BF, size: 0x8, addend: 0x0, symName: __ZNSt3__14pairINS_16reverse_iteratorIPP8MushroomEES5_EC1B8ue170006IS5_S5_LPv0EEEOT_OT0_, symObjAddr: 0xD254, symBinAddr: 0x10000ECD8, symSize: 0x3C }
  - { offsetInCU: 0x1EA1C, offset: 0x1EA1C, size: 0x8, addend: 0x0, symName: __ZNSt3__14pairINS_16reverse_iteratorIPP8MushroomEES5_EC2B8ue170006IS5_S5_LPv0EEEOT_OT0_, symObjAddr: 0xD290, symBinAddr: 0x10000ED14, symSize: 0x34 }
  - { offsetInCU: 0x1EA79, offset: 0x1EA79, size: 0x8, addend: 0x0, symName: __ZNSt3__118__unwrap_iter_implINS_16reverse_iteratorIPP8MushroomEELb0EE8__rewrapB8ue170006ES5_S5_, symObjAddr: 0xD2C4, symBinAddr: 0x10000ED48, symSize: 0x2C }
  - { offsetInCU: 0x1EAA6, offset: 0x1EAA6, size: 0x8, addend: 0x0, symName: __ZNSt3__116reverse_iteratorIPP8MushroomEC2B8ue170006ES3_, symObjAddr: 0xD2F0, symBinAddr: 0x10000ED74, symSize: 0x28 }
  - { offsetInCU: 0x1EADD, offset: 0x1EADD, size: 0x8, addend: 0x0, symName: __ZNSt3__114__split_bufferIP8MushroomRNS_9allocatorIS2_EEED2Ev, symObjAddr: 0xD318, symBinAddr: 0x10000ED9C, symSize: 0x8C }
  - { offsetInCU: 0x1EB08, offset: 0x1EB08, size: 0x8, addend: 0x0, symName: __ZNSt3__114__split_bufferIP8MushroomRNS_9allocatorIS2_EEE5clearB8ue170006Ev, symObjAddr: 0xD3A4, symBinAddr: 0x10000EE28, symSize: 0x28 }
  - { offsetInCU: 0x1EB2D, offset: 0x1EB2D, size: 0x8, addend: 0x0, symName: __ZNKSt3__114__split_bufferIP8MushroomRNS_9allocatorIS2_EEE8capacityB8ue170006Ev, symObjAddr: 0xD3CC, symBinAddr: 0x10000EE50, symSize: 0x40 }
  - { offsetInCU: 0x1EB52, offset: 0x1EB52, size: 0x8, addend: 0x0, symName: __ZNSt3__114__split_bufferIP8MushroomRNS_9allocatorIS2_EEE17__destruct_at_endB8ue170006EPS2_, symObjAddr: 0xD40C, symBinAddr: 0x10000EE90, symSize: 0x2C }
  - { offsetInCU: 0x1EB84, offset: 0x1EB84, size: 0x8, addend: 0x0, symName: __ZNSt3__114__split_bufferIP8MushroomRNS_9allocatorIS2_EEE17__destruct_at_endB8ue170006EPS2_NS_17integral_constantIbLb0EEE, symObjAddr: 0xD438, symBinAddr: 0x10000EEBC, symSize: 0x80 }
  - { offsetInCU: 0x1EBC3, offset: 0x1EBC3, size: 0x8, addend: 0x0, symName: __ZNKSt3__114__split_bufferIP8MushroomRNS_9allocatorIS2_EEE9__end_capB8ue170006Ev, symObjAddr: 0xD4B8, symBinAddr: 0x10000EF3C, symSize: 0x28 }
  - { offsetInCU: 0x1EBE8, offset: 0x1EBE8, size: 0x8, addend: 0x0, symName: __ZNKSt3__117__compressed_pairIPP8MushroomRNS_9allocatorIS2_EEE5firstB8ue170006Ev, symObjAddr: 0xD4E0, symBinAddr: 0x10000EF64, symSize: 0x24 }
  - { offsetInCU: 0x1EC0D, offset: 0x1EC0D, size: 0x8, addend: 0x0, symName: __ZNSt3__111char_traitsIcE6lengthB8ue170006EPKc, symObjAddr: 0xD6F0, symBinAddr: 0x10000F174, symSize: 0x34 }
  - { offsetInCU: 0x1EC4E, offset: 0x1EC4E, size: 0x8, addend: 0x0, symName: __ZNKSt3__113basic_ostreamIcNS_11char_traitsIcEEE6sentrycvbB8ue170006Ev, symObjAddr: 0xD724, symBinAddr: 0x10000F1A8, symSize: 0x1C }
  - { offsetInCU: 0x1EC73, offset: 0x1EC73, size: 0x8, addend: 0x0, symName: __ZNSt3__119ostreambuf_iteratorIcNS_11char_traitsIcEEEC1B8ue170006ERNS_13basic_ostreamIcS2_EE, symObjAddr: 0xD980, symBinAddr: 0x10000F404, symSize: 0x34 }
  - { offsetInCU: 0x1ECAA, offset: 0x1ECAA, size: 0x8, addend: 0x0, symName: __ZNKSt3__18ios_base5flagsB8ue170006Ev, symObjAddr: 0xD9B4, symBinAddr: 0x10000F438, symSize: 0x18 }
  - { offsetInCU: 0x1ECD0, offset: 0x1ECD0, size: 0x8, addend: 0x0, symName: __ZNKSt3__19basic_iosIcNS_11char_traitsIcEEE4fillB8ue170006Ev, symObjAddr: 0xD9CC, symBinAddr: 0x10000F450, symSize: 0x64 }
  - { offsetInCU: 0x1ECF7, offset: 0x1ECF7, size: 0x8, addend: 0x0, symName: __ZNKSt3__119ostreambuf_iteratorIcNS_11char_traitsIcEEE6failedB8ue170006Ev, symObjAddr: 0xDA30, symBinAddr: 0x10000F4B4, symSize: 0x24 }
  - { offsetInCU: 0x1ED1C, offset: 0x1ED1C, size: 0x8, addend: 0x0, symName: __ZNSt3__19basic_iosIcNS_11char_traitsIcEEE8setstateB8ue170006Ej, symObjAddr: 0xDA54, symBinAddr: 0x10000F4D8, symSize: 0x2C }
  - { offsetInCU: 0x1ED50, offset: 0x1ED50, size: 0x8, addend: 0x0, symName: __ZNKSt3__18ios_base5widthB8ue170006Ev, symObjAddr: 0xDA80, symBinAddr: 0x10000F504, symSize: 0x18 }
  - { offsetInCU: 0x1ED77, offset: 0x1ED77, size: 0x8, addend: 0x0, symName: __ZNSt3__115basic_streambufIcNS_11char_traitsIcEEE5sputnB8ue170006EPKcl, symObjAddr: 0xDA98, symBinAddr: 0x10000F51C, symSize: 0x3C }
  - { offsetInCU: 0x1EDB8, offset: 0x1EDB8, size: 0x8, addend: 0x0, symName: __ZNSt3__112basic_stringIcNS_11char_traitsIcEENS_9allocatorIcEEEC1B8ue170006Emc, symObjAddr: 0xDAD4, symBinAddr: 0x10000F558, symSize: 0x3C }
  - { offsetInCU: 0x1EDFF, offset: 0x1EDFF, size: 0x8, addend: 0x0, symName: __ZNKSt3__112basic_stringIcNS_11char_traitsIcEENS_9allocatorIcEEE4dataB8ue170006Ev, symObjAddr: 0xDB10, symBinAddr: 0x10000F594, symSize: 0x28 }
  - { offsetInCU: 0x1EE24, offset: 0x1EE24, size: 0x8, addend: 0x0, symName: __ZNSt3__18ios_base5widthB8ue170006El, symObjAddr: 0xDB38, symBinAddr: 0x10000F5BC, symSize: 0x2C }
  - { offsetInCU: 0x1EE69, offset: 0x1EE69, size: 0x8, addend: 0x0, symName: __ZNSt3__112basic_stringIcNS_11char_traitsIcEENS_9allocatorIcEEEC2B8ue170006Emc, symObjAddr: 0xDB64, symBinAddr: 0x10000F5E8, symSize: 0x4C }
  - { offsetInCU: 0x1EEB0, offset: 0x1EEB0, size: 0x8, addend: 0x0, symName: __ZNSt3__117__compressed_pairINS_12basic_stringIcNS_11char_traitsIcEENS_9allocatorIcEEE5__repES5_EC1B8ue170006INS_18__default_init_tagESA_EEOT_OT0_, symObjAddr: 0xDBB0, symBinAddr: 0x10000F634, symSize: 0x3C }
  - { offsetInCU: 0x1EF07, offset: 0x1EF07, size: 0x8, addend: 0x0, symName: __ZNSt3__117__compressed_pairINS_12basic_stringIcNS_11char_traitsIcEENS_9allocatorIcEEE5__repES5_EC2B8ue170006INS_18__default_init_tagESA_EEOT_OT0_, symObjAddr: 0xDBEC, symBinAddr: 0x10000F670, symSize: 0x3C }
  - { offsetInCU: 0x1EF5E, offset: 0x1EF5E, size: 0x8, addend: 0x0, symName: __ZNSt3__122__compressed_pair_elemINS_12basic_stringIcNS_11char_traitsIcEENS_9allocatorIcEEE5__repELi0ELb0EEC2B8ue170006ENS_18__default_init_tagE, symObjAddr: 0xDC28, symBinAddr: 0x10000F6AC, symSize: 0x14 }
  - { offsetInCU: 0x1EF91, offset: 0x1EF91, size: 0x8, addend: 0x0, symName: __ZNSt3__122__compressed_pair_elemINS_9allocatorIcEELi1ELb1EEC2B8ue170006ENS_18__default_init_tagE, symObjAddr: 0xDC3C, symBinAddr: 0x10000F6C0, symSize: 0x2C }
  - { offsetInCU: 0x1EFC4, offset: 0x1EFC4, size: 0x8, addend: 0x0, symName: __ZNSt3__19allocatorIcEC2B8ue170006Ev, symObjAddr: 0xDC68, symBinAddr: 0x10000F6EC, symSize: 0x2C }
  - { offsetInCU: 0x1EFED, offset: 0x1EFED, size: 0x8, addend: 0x0, symName: __ZNSt3__116__non_trivial_ifILb1ENS_9allocatorIcEEEC2B8ue170006Ev, symObjAddr: 0xDC94, symBinAddr: 0x10000F718, symSize: 0x14 }
  - { offsetInCU: 0x1F016, offset: 0x1F016, size: 0x8, addend: 0x0, symName: __ZNKSt3__112basic_stringIcNS_11char_traitsIcEENS_9allocatorIcEEE13__get_pointerB8ue170006Ev, symObjAddr: 0xDCBC, symBinAddr: 0x10000F740, symSize: 0x54 }
  - { offsetInCU: 0x1F03B, offset: 0x1F03B, size: 0x8, addend: 0x0, symName: __ZNKSt3__112basic_stringIcNS_11char_traitsIcEENS_9allocatorIcEEE9__is_longB8ue170006Ev, symObjAddr: 0xDD10, symBinAddr: 0x10000F794, symSize: 0x38 }
  - { offsetInCU: 0x1F060, offset: 0x1F060, size: 0x8, addend: 0x0, symName: __ZNKSt3__112basic_stringIcNS_11char_traitsIcEENS_9allocatorIcEEE18__get_long_pointerB8ue170006Ev, symObjAddr: 0xDD48, symBinAddr: 0x10000F7CC, symSize: 0x28 }
  - { offsetInCU: 0x1F085, offset: 0x1F085, size: 0x8, addend: 0x0, symName: __ZNKSt3__112basic_stringIcNS_11char_traitsIcEENS_9allocatorIcEEE19__get_short_pointerB8ue170006Ev, symObjAddr: 0xDD70, symBinAddr: 0x10000F7F4, symSize: 0x28 }
  - { offsetInCU: 0x1F0AA, offset: 0x1F0AA, size: 0x8, addend: 0x0, symName: __ZNKSt3__117__compressed_pairINS_12basic_stringIcNS_11char_traitsIcEENS_9allocatorIcEEE5__repES5_E5firstB8ue170006Ev, symObjAddr: 0xDD98, symBinAddr: 0x10000F81C, symSize: 0x24 }
  - { offsetInCU: 0x1F0CF, offset: 0x1F0CF, size: 0x8, addend: 0x0, symName: __ZNKSt3__122__compressed_pair_elemINS_12basic_stringIcNS_11char_traitsIcEENS_9allocatorIcEEE5__repELi0ELb0EE5__getB8ue170006Ev, symObjAddr: 0xDDBC, symBinAddr: 0x10000F840, symSize: 0x14 }
  - { offsetInCU: 0x1F0F4, offset: 0x1F0F4, size: 0x8, addend: 0x0, symName: __ZNSt3__114pointer_traitsIPKcE10pointer_toB8ue170006ERS1_, symObjAddr: 0xDDD0, symBinAddr: 0x10000F854, symSize: 0x14 }
  - { offsetInCU: 0x1F117, offset: 0x1F117, size: 0x8, addend: 0x0, symName: __ZNSt3__119ostreambuf_iteratorIcNS_11char_traitsIcEEEC2B8ue170006ERNS_13basic_ostreamIcS2_EE, symObjAddr: 0xDDE4, symBinAddr: 0x10000F868, symSize: 0x54 }
  - { offsetInCU: 0x1F14D, offset: 0x1F14D, size: 0x8, addend: 0x0, symName: __ZNKSt3__19basic_iosIcNS_11char_traitsIcEEE5rdbufB8ue170006Ev, symObjAddr: 0xDE38, symBinAddr: 0x10000F8BC, symSize: 0x24 }
  - { offsetInCU: 0x1F174, offset: 0x1F174, size: 0x8, addend: 0x0, symName: __ZNKSt3__18ios_base5rdbufB8ue170006Ev, symObjAddr: 0xDE5C, symBinAddr: 0x10000F8E0, symSize: 0x18 }
  - { offsetInCU: 0x1F199, offset: 0x1F199, size: 0x8, addend: 0x0, symName: __ZNSt3__111char_traitsIcE11eq_int_typeB8ue170006Eii, symObjAddr: 0xDE74, symBinAddr: 0x10000F8F8, symSize: 0x28 }
  - { offsetInCU: 0x1F1CC, offset: 0x1F1CC, size: 0x8, addend: 0x0, symName: __ZNSt3__111char_traitsIcE3eofB8ue170006Ev, symObjAddr: 0xDE9C, symBinAddr: 0x10000F920, symSize: 0x8 }
  - { offsetInCU: 0x1F1DF, offset: 0x1F1DF, size: 0x8, addend: 0x0, symName: __ZNKSt3__19basic_iosIcNS_11char_traitsIcEEE5widenB8ue170006Ec, symObjAddr: 0xDEA4, symBinAddr: 0x10000F928, symSize: 0x84 }
  - { offsetInCU: 0x1F247, offset: 0x1F247, size: 0x8, addend: 0x0, symName: __ZNKSt3__15ctypeIcE5widenB8ue170006Ec, symObjAddr: 0xDF54, symBinAddr: 0x10000F9D8, symSize: 0x38 }
  - { offsetInCU: 0x1F27A, offset: 0x1F27A, size: 0x8, addend: 0x0, symName: __ZNSt3__18ios_base8setstateB8ue170006Ej, symObjAddr: 0xDF8C, symBinAddr: 0x10000FA10, symSize: 0x34 }
  - { offsetInCU: 0x1F2B0, offset: 0x1F2B0, size: 0x8, addend: 0x0, symName: __ZNSt3__19basic_iosIcNS_11char_traitsIcEEEC2B8ue170006Ev, symObjAddr: 0xDFE4, symBinAddr: 0x10000FA68, symSize: 0x44 }
  - { offsetInCU: 0x1F2D9, offset: 0x1F2D9, size: 0x8, addend: 0x0, symName: __ZNSt3__113basic_ostreamIcNS_11char_traitsIcEEEC2B8ue170006EPNS_15basic_streambufIcS2_EE, symObjAddr: 0xE028, symBinAddr: 0x10000FAAC, symSize: 0x60 }
  - { offsetInCU: 0x1F31C, offset: 0x1F31C, size: 0x8, addend: 0x0, symName: __ZNSt3__18ios_baseC2B8ue170006Ev, symObjAddr: 0xE088, symBinAddr: 0x10000FB0C, symSize: 0x24 }
  - { offsetInCU: 0x1F344, offset: 0x1F344, size: 0x8, addend: 0x0, symName: __ZNSt3__19basic_iosIcNS_11char_traitsIcEEE4initB8ue170006EPNS_15basic_streambufIcS2_EE, symObjAddr: 0xE0AC, symBinAddr: 0x10000FB30, symSize: 0x44 }
  - { offsetInCU: 0x1F37A, offset: 0x1F37A, size: 0x8, addend: 0x0, symName: __ZNSt3__16vectorIbNS_9allocatorIbEEEC2B8ue170006Ev, symObjAddr: 0xE0F0, symBinAddr: 0x10000FB74, symSize: 0x4C }
  - { offsetInCU: 0x1F3AA, offset: 0x1F3AA, size: 0x8, addend: 0x0, symName: __ZNSt3__117__compressed_pairImNS_9allocatorImEEEC1B8ue170006IiNS_18__default_init_tagEEEOT_OT0_, symObjAddr: 0xE13C, symBinAddr: 0x10000FBC0, symSize: 0x3C }
  - { offsetInCU: 0x1F401, offset: 0x1F401, size: 0x8, addend: 0x0, symName: __ZNSt3__117__compressed_pairImNS_9allocatorImEEEC2B8ue170006IiNS_18__default_init_tagEEEOT_OT0_, symObjAddr: 0xE178, symBinAddr: 0x10000FBFC, symSize: 0x40 }
  - { offsetInCU: 0x1F458, offset: 0x1F458, size: 0x8, addend: 0x0, symName: __ZNSt3__122__compressed_pair_elemImLi0ELb0EEC2B8ue170006IivEEOT_, symObjAddr: 0xE1B8, symBinAddr: 0x10000FC3C, symSize: 0x24 }
  - { offsetInCU: 0x1F499, offset: 0x1F499, size: 0x8, addend: 0x0, symName: __ZNSt3__122__compressed_pair_elemINS_9allocatorImEELi1ELb1EEC2B8ue170006ENS_18__default_init_tagE, symObjAddr: 0xE1DC, symBinAddr: 0x10000FC60, symSize: 0x2C }
  - { offsetInCU: 0x1F4CC, offset: 0x1F4CC, size: 0x8, addend: 0x0, symName: __ZNSt3__19allocatorImEC2B8ue170006Ev, symObjAddr: 0xE208, symBinAddr: 0x10000FC8C, symSize: 0x2C }
  - { offsetInCU: 0x1F4F5, offset: 0x1F4F5, size: 0x8, addend: 0x0, symName: __ZNSt3__116__non_trivial_ifILb1ENS_9allocatorImEEEC2B8ue170006Ev, symObjAddr: 0xE234, symBinAddr: 0x10000FCB8, symSize: 0x14 }
  - { offsetInCU: 0x1F51E, offset: 0x1F51E, size: 0x8, addend: 0x0, symName: __ZNSt3__16vectorIbNS_9allocatorIbEEED2B8ue170006Ev, symObjAddr: 0xE248, symBinAddr: 0x10000FCCC, symSize: 0x44 }
  - { offsetInCU: 0x1F547, offset: 0x1F547, size: 0x8, addend: 0x0, symName: __ZNSt3__16vectorIbNS_9allocatorIbEEE16__destroy_vectorC1B8ue170006ERS3_, symObjAddr: 0xE28C, symBinAddr: 0x10000FD10, symSize: 0x34 }
  - { offsetInCU: 0x1F57F, offset: 0x1F57F, size: 0x8, addend: 0x0, symName: __ZNSt3__16vectorIbNS_9allocatorIbEEE16__destroy_vectorclB8ue170006Ev, symObjAddr: 0xE2C0, symBinAddr: 0x10000FD44, symSize: 0x7C }
  - { offsetInCU: 0x1F5A4, offset: 0x1F5A4, size: 0x8, addend: 0x0, symName: __ZNSt3__16vectorIbNS_9allocatorIbEEE16__destroy_vectorC2B8ue170006ERS3_, symObjAddr: 0xE33C, symBinAddr: 0x10000FDC0, symSize: 0x20 }
  - { offsetInCU: 0x1F5DC, offset: 0x1F5DC, size: 0x8, addend: 0x0, symName: __ZNSt3__116allocator_traitsINS_9allocatorImEEE10deallocateB8ue170006ERS2_Pmm, symObjAddr: 0xE35C, symBinAddr: 0x10000FDE0, symSize: 0x34 }
  - { offsetInCU: 0x1F61E, offset: 0x1F61E, size: 0x8, addend: 0x0, symName: __ZNSt3__16vectorIbNS_9allocatorIbEEE7__allocB8ue170006Ev, symObjAddr: 0xE390, symBinAddr: 0x10000FE14, symSize: 0x28 }
  - { offsetInCU: 0x1F643, offset: 0x1F643, size: 0x8, addend: 0x0, symName: __ZNSt3__16vectorIbNS_9allocatorIbEEE5__capB8ue170006Ev, symObjAddr: 0xE3B8, symBinAddr: 0x10000FE3C, symSize: 0x28 }
  - { offsetInCU: 0x1F668, offset: 0x1F668, size: 0x8, addend: 0x0, symName: __ZNSt3__19allocatorImE10deallocateB8ue170006EPmm, symObjAddr: 0xE3E0, symBinAddr: 0x10000FE64, symSize: 0x40 }
  - { offsetInCU: 0x1F6A9, offset: 0x1F6A9, size: 0x8, addend: 0x0, symName: __ZNSt3__117__compressed_pairImNS_9allocatorImEEE6secondB8ue170006Ev, symObjAddr: 0xE420, symBinAddr: 0x10000FEA4, symSize: 0x24 }
  - { offsetInCU: 0x1F6CE, offset: 0x1F6CE, size: 0x8, addend: 0x0, symName: __ZNSt3__122__compressed_pair_elemINS_9allocatorImEELi1ELb1EE5__getB8ue170006Ev, symObjAddr: 0xE444, symBinAddr: 0x10000FEC8, symSize: 0x14 }
  - { offsetInCU: 0x1F6F3, offset: 0x1F6F3, size: 0x8, addend: 0x0, symName: __ZNSt3__117__compressed_pairImNS_9allocatorImEEE5firstB8ue170006Ev, symObjAddr: 0xE458, symBinAddr: 0x10000FEDC, symSize: 0x24 }
  - { offsetInCU: 0x1F718, offset: 0x1F718, size: 0x8, addend: 0x0, symName: __ZNSt3__122__compressed_pair_elemImLi0ELb0EE5__getB8ue170006Ev, symObjAddr: 0xE47C, symBinAddr: 0x10000FF00, symSize: 0x14 }
  - { offsetInCU: 0x1F73D, offset: 0x1F73D, size: 0x8, addend: 0x0, symName: __ZNKSt3__16vectorIbNS_9allocatorIbEEE8capacityB8ue170006Ev, symObjAddr: 0xE490, symBinAddr: 0x10000FF14, symSize: 0x2C }
  - { offsetInCU: 0x1F761, offset: 0x1F761, size: 0x8, addend: 0x0, symName: __ZNSt3__16vectorIbNS_9allocatorIbEEE7reserveEm, symObjAddr: 0xE4BC, symBinAddr: 0x10000FF40, symSize: 0x118 }
  - { offsetInCU: 0x1F7AB, offset: 0x1F7AB, size: 0x8, addend: 0x0, symName: __ZNKSt3__16vectorIbNS_9allocatorIbEEE11__recommendB8ue170006Em, symObjAddr: 0xE5D4, symBinAddr: 0x100010058, symSize: 0xCC }
  - { offsetInCU: 0x1F7FF, offset: 0x1F7FF, size: 0x8, addend: 0x0, symName: __ZNSt3__16vectorIbNS_9allocatorIbEEE4backB8ue170006Ev, symObjAddr: 0xE6A0, symBinAddr: 0x100010124, symSize: 0x3C }
  - { offsetInCU: 0x1F824, offset: 0x1F824, size: 0x8, addend: 0x0, symName: __ZNSt3__115__bit_referenceINS_6vectorIbNS_9allocatorIbEEEELb1EEaSB8ue170006Eb, symObjAddr: 0xE6DC, symBinAddr: 0x100010160, symSize: 0x6C }
  - { offsetInCU: 0x1F857, offset: 0x1F857, size: 0x8, addend: 0x0, symName: __ZNSt3__16vectorIbNS_9allocatorIbEEE26__internal_cap_to_externalB8ue170006Em, symObjAddr: 0xE748, symBinAddr: 0x1000101CC, symSize: 0x18 }
  - { offsetInCU: 0x1F87B, offset: 0x1F87B, size: 0x8, addend: 0x0, symName: __ZNKSt3__16vectorIbNS_9allocatorIbEEE5__capB8ue170006Ev, symObjAddr: 0xE760, symBinAddr: 0x1000101E4, symSize: 0x28 }
  - { offsetInCU: 0x1F8A0, offset: 0x1F8A0, size: 0x8, addend: 0x0, symName: __ZNKSt3__117__compressed_pairImNS_9allocatorImEEE5firstB8ue170006Ev, symObjAddr: 0xE788, symBinAddr: 0x10001020C, symSize: 0x24 }
  - { offsetInCU: 0x1F8C5, offset: 0x1F8C5, size: 0x8, addend: 0x0, symName: __ZNKSt3__122__compressed_pair_elemImLi0ELb0EE5__getB8ue170006Ev, symObjAddr: 0xE7AC, symBinAddr: 0x100010230, symSize: 0x14 }
  - { offsetInCU: 0x1F8E9, offset: 0x1F8E9, size: 0x8, addend: 0x0, symName: __ZNKSt3__16vectorIbNS_9allocatorIbEEE8max_sizeEv, symObjAddr: 0xE7C0, symBinAddr: 0x100010244, symSize: 0x7C }
  - { offsetInCU: 0x1F92E, offset: 0x1F92E, size: 0x8, addend: 0x0, symName: __ZNKSt3__16vectorIbNS_9allocatorIbEEE20__throw_length_errorB8ue170006Ev, symObjAddr: 0xE83C, symBinAddr: 0x1000102C0, symSize: 0x1C }
  - { offsetInCU: 0x1F953, offset: 0x1F953, size: 0x8, addend: 0x0, symName: __ZNKSt3__16vectorIbNS_9allocatorIbEEE13get_allocatorB8ue170006Ev, symObjAddr: 0xE858, symBinAddr: 0x1000102DC, symSize: 0x30 }
  - { offsetInCU: 0x1F978, offset: 0x1F978, size: 0x8, addend: 0x0, symName: __ZNSt3__16vectorIbNS_9allocatorIbEEEC1B8ue170006ERKS2_, symObjAddr: 0xE888, symBinAddr: 0x10001030C, symSize: 0x34 }
  - { offsetInCU: 0x1F9B2, offset: 0x1F9B2, size: 0x8, addend: 0x0, symName: __ZNSt3__16vectorIbNS_9allocatorIbEEE11__vallocateB8ue170006Em, symObjAddr: 0xE8BC, symBinAddr: 0x100010340, symSize: 0xA0 }
  - { offsetInCU: 0x1F9F4, offset: 0x1F9F4, size: 0x8, addend: 0x0, symName: __ZNSt3__16vectorIbNS_9allocatorIbEEE18__construct_at_endINS_14__bit_iteratorIS3_Lb0ELm0EEES6_EEvT_T0_m, symObjAddr: 0xE95C, symBinAddr: 0x1000103E0, symSize: 0x12C }
  - { offsetInCU: 0x1FA6B, offset: 0x1FA6B, size: 0x8, addend: 0x0, symName: __ZNSt3__16vectorIbNS_9allocatorIbEEE5beginB8ue170006Ev, symObjAddr: 0xEA88, symBinAddr: 0x10001050C, symSize: 0x30 }
  - { offsetInCU: 0x1FA90, offset: 0x1FA90, size: 0x8, addend: 0x0, symName: __ZNSt3__16vectorIbNS_9allocatorIbEEE3endB8ue170006Ev, symObjAddr: 0xEAB8, symBinAddr: 0x10001053C, symSize: 0x30 }
  - { offsetInCU: 0x1FAB4, offset: 0x1FAB4, size: 0x8, addend: 0x0, symName: __ZNSt3__16vectorIbNS_9allocatorIbEEE4swapERS3_, symObjAddr: 0xEAE8, symBinAddr: 0x10001056C, symSize: 0x84 }
  - { offsetInCU: 0x1FAF4, offset: 0x1FAF4, size: 0x8, addend: 0x0, symName: __ZNSt3__116allocator_traitsINS_9allocatorImEEE8max_sizeB8ue170006IS2_vEEmRKS2_, symObjAddr: 0xEB6C, symBinAddr: 0x1000105F0, symSize: 0x24 }
  - { offsetInCU: 0x1FB22, offset: 0x1FB22, size: 0x8, addend: 0x0, symName: __ZNKSt3__16vectorIbNS_9allocatorIbEEE7__allocB8ue170006Ev, symObjAddr: 0xEB90, symBinAddr: 0x100010614, symSize: 0x28 }
  - { offsetInCU: 0x1FB47, offset: 0x1FB47, size: 0x8, addend: 0x0, symName: __ZNSt3__114numeric_limitsImE3maxB8ue170006Ev, symObjAddr: 0xEBB8, symBinAddr: 0x10001063C, symSize: 0x14 }
  - { offsetInCU: 0x1FB5B, offset: 0x1FB5B, size: 0x8, addend: 0x0, symName: __ZNKSt3__19allocatorImE8max_sizeB8ue170006Ev, symObjAddr: 0xEBCC, symBinAddr: 0x100010650, symSize: 0x14 }
  - { offsetInCU: 0x1FB80, offset: 0x1FB80, size: 0x8, addend: 0x0, symName: __ZNKSt3__117__compressed_pairImNS_9allocatorImEEE6secondB8ue170006Ev, symObjAddr: 0xEBE0, symBinAddr: 0x100010664, symSize: 0x24 }
  - { offsetInCU: 0x1FBA5, offset: 0x1FBA5, size: 0x8, addend: 0x0, symName: __ZNKSt3__122__compressed_pair_elemINS_9allocatorImEELi1ELb1EE5__getB8ue170006Ev, symObjAddr: 0xEC04, symBinAddr: 0x100010688, symSize: 0x14 }
  - { offsetInCU: 0x1FBCA, offset: 0x1FBCA, size: 0x8, addend: 0x0, symName: __ZNSt3__123__libcpp_numeric_limitsImLb1EE3maxB8ue170006Ev, symObjAddr: 0xEC18, symBinAddr: 0x10001069C, symSize: 0x8 }
  - { offsetInCU: 0x1FBDE, offset: 0x1FBDE, size: 0x8, addend: 0x0, symName: __ZNSt3__19allocatorIbEC1B8ue170006ImEERKNS0_IT_EE, symObjAddr: 0xEC20, symBinAddr: 0x1000106A4, symSize: 0x34 }
  - { offsetInCU: 0x1FC1A, offset: 0x1FC1A, size: 0x8, addend: 0x0, symName: __ZNSt3__19allocatorIbEC2B8ue170006ImEERKNS0_IT_EE, symObjAddr: 0xEC54, symBinAddr: 0x1000106D8, symSize: 0x30 }
  - { offsetInCU: 0x1FC56, offset: 0x1FC56, size: 0x8, addend: 0x0, symName: __ZNSt3__116__non_trivial_ifILb1ENS_9allocatorIbEEEC2B8ue170006Ev, symObjAddr: 0xEC84, symBinAddr: 0x100010708, symSize: 0x14 }
  - { offsetInCU: 0x1FC7F, offset: 0x1FC7F, size: 0x8, addend: 0x0, symName: __ZNSt3__16vectorIbNS_9allocatorIbEEEC2B8ue170006ERKS2_, symObjAddr: 0xEC98, symBinAddr: 0x10001071C, symSize: 0x6C }
  - { offsetInCU: 0x1FCBE, offset: 0x1FCBE, size: 0x8, addend: 0x0, symName: __ZNSt3__19allocatorImEC1B8ue170006IbEERKNS0_IT_EE, symObjAddr: 0xED04, symBinAddr: 0x100010788, symSize: 0x34 }
  - { offsetInCU: 0x1FCFF, offset: 0x1FCFF, size: 0x8, addend: 0x0, symName: __ZNSt3__117__compressed_pairImNS_9allocatorImEEEC1B8ue170006IiS2_EEOT_OT0_, symObjAddr: 0xED38, symBinAddr: 0x1000107BC, symSize: 0x3C }
  - { offsetInCU: 0x1FD56, offset: 0x1FD56, size: 0x8, addend: 0x0, symName: __ZNSt3__19allocatorImEC2B8ue170006IbEERKNS0_IT_EE, symObjAddr: 0xED74, symBinAddr: 0x1000107F8, symSize: 0x30 }
  - { offsetInCU: 0x1FD92, offset: 0x1FD92, size: 0x8, addend: 0x0, symName: __ZNSt3__117__compressed_pairImNS_9allocatorImEEEC2B8ue170006IiS2_EEOT_OT0_, symObjAddr: 0xEDA4, symBinAddr: 0x100010828, symSize: 0x44 }
  - { offsetInCU: 0x1FDE9, offset: 0x1FDE9, size: 0x8, addend: 0x0, symName: __ZNSt3__122__compressed_pair_elemINS_9allocatorImEELi1ELb1EEC2B8ue170006IS2_vEEOT_, symObjAddr: 0xEDE8, symBinAddr: 0x10001086C, symSize: 0x18 }
  - { offsetInCU: 0x1FE2A, offset: 0x1FE2A, size: 0x8, addend: 0x0, symName: __ZNSt3__16vectorIbNS_9allocatorIbEEE26__external_cap_to_internalB8ue170006Em, symObjAddr: 0xEE40, symBinAddr: 0x1000108C4, symSize: 0x24 }
  - { offsetInCU: 0x1FE4E, offset: 0x1FE4E, size: 0x8, addend: 0x0, symName: __ZNSt3__19allocatorImE8allocateB8ue170006Em, symObjAddr: 0xEE64, symBinAddr: 0x1000108E8, symSize: 0x58 }
  - { offsetInCU: 0x1FE81, offset: 0x1FE81, size: 0x8, addend: 0x0, symName: __ZNSt3__114__bit_iteratorINS_6vectorIbNS_9allocatorIbEEEELb0ELm0EEC1B8ue170006ERKS5_, symObjAddr: 0xEF44, symBinAddr: 0x1000109C8, symSize: 0x34 }
  - { offsetInCU: 0x1FEB9, offset: 0x1FEB9, size: 0x8, addend: 0x0, symName: __ZNSt3__16vectorIbNS_9allocatorIbEEE11__make_iterB8ue170006Em, symObjAddr: 0xEF78, symBinAddr: 0x1000109FC, symSize: 0x64 }
  - { offsetInCU: 0x1FF10, offset: 0x1FF10, size: 0x8, addend: 0x0, symName: __ZNKSt3__111__copy_loopINS_17_ClassicAlgPolicyEEclB8ue170006INS_14__bit_iteratorINS_6vectorIbNS_9allocatorIbEEEELb0ELm0EEES9_S9_EENS_4pairIT_T1_EESB_T0_SC_, symObjAddr: 0xF24C, symBinAddr: 0x100010CD0, symSize: 0xB8 }
  - { offsetInCU: 0x1FF7D, offset: 0x1FF7D, size: 0x8, addend: 0x0, symName: __ZNKSt3__114__bit_iteratorINS_6vectorIbNS_9allocatorIbEEEELb0ELm0EEdeB8ue170006Ev, symObjAddr: 0xF49C, symBinAddr: 0x100010F20, symSize: 0x44 }
  - { offsetInCU: 0x1FFA2, offset: 0x1FFA2, size: 0x8, addend: 0x0, symName: __ZNSt3__115__bit_referenceINS_6vectorIbNS_9allocatorIbEEEELb1EEaSB8ue170006ERKS5_, symObjAddr: 0xF4E0, symBinAddr: 0x100010F64, symSize: 0x40 }
  - { offsetInCU: 0x1FFD5, offset: 0x1FFD5, size: 0x8, addend: 0x0, symName: __ZNSt3__114__bit_iteratorINS_6vectorIbNS_9allocatorIbEEEELb0ELm0EEppB8ue170006Ev, symObjAddr: 0xF520, symBinAddr: 0x100010FA4, symSize: 0x5C }
  - { offsetInCU: 0x1FFFA, offset: 0x1FFFA, size: 0x8, addend: 0x0, symName: __ZNSt3__115__bit_referenceINS_6vectorIbNS_9allocatorIbEEEELb1EEC1B8ue170006EPmm, symObjAddr: 0xF5E0, symBinAddr: 0x100011064, symSize: 0x3C }
  - { offsetInCU: 0x2003F, offset: 0x2003F, size: 0x8, addend: 0x0, symName: __ZNSt3__115__bit_referenceINS_6vectorIbNS_9allocatorIbEEEELb1EEC2B8ue170006EPmm, symObjAddr: 0xF61C, symBinAddr: 0x1000110A0, symSize: 0x2C }
  - { offsetInCU: 0x20084, offset: 0x20084, size: 0x8, addend: 0x0, symName: __ZNKSt3__115__bit_referenceINS_6vectorIbNS_9allocatorIbEEEELb1EEcvbB8ue170006Ev, symObjAddr: 0xF648, symBinAddr: 0x1000110CC, symSize: 0x2C }
  - { offsetInCU: 0x200A9, offset: 0x200A9, size: 0x8, addend: 0x0, symName: __ZNSt3__118__unwrap_iter_implINS_14__bit_iteratorINS_6vectorIbNS_9allocatorIbEEEELb0ELm0EEELb0EE8__unwrapB8ue170006ES6_, symObjAddr: 0xF674, symBinAddr: 0x1000110F8, symSize: 0x38 }
  - { offsetInCU: 0x200D2, offset: 0x200D2, size: 0x8, addend: 0x0, symName: __ZNSt3__14pairINS_14__bit_iteratorINS_6vectorIbNS_9allocatorIbEEEELb0ELm0EEES6_EC1B8ue170006IS6_S6_LPv0EEEOT_OT0_, symObjAddr: 0xF6AC, symBinAddr: 0x100011130, symSize: 0x3C }
  - { offsetInCU: 0x2012F, offset: 0x2012F, size: 0x8, addend: 0x0, symName: __ZNSt3__14pairINS_14__bit_iteratorINS_6vectorIbNS_9allocatorIbEEEELb0ELm0EEES6_EC2B8ue170006IS6_S6_LPv0EEEOT_OT0_, symObjAddr: 0xF6E8, symBinAddr: 0x10001116C, symSize: 0x48 }
  - { offsetInCU: 0x2018C, offset: 0x2018C, size: 0x8, addend: 0x0, symName: __ZNSt3__118__unwrap_iter_implINS_14__bit_iteratorINS_6vectorIbNS_9allocatorIbEEEELb0ELm0EEELb0EE8__rewrapB8ue170006ES6_S6_, symObjAddr: 0xF730, symBinAddr: 0x1000111B4, symSize: 0x3C }
  - { offsetInCU: 0x201BB, offset: 0x201BB, size: 0x8, addend: 0x0, symName: __ZNSt3__114__bit_iteratorINS_6vectorIbNS_9allocatorIbEEEELb0ELm0EEC2B8ue170006ERKS5_, symObjAddr: 0xF76C, symBinAddr: 0x1000111F0, symSize: 0x30 }
  - { offsetInCU: 0x201F3, offset: 0x201F3, size: 0x8, addend: 0x0, symName: __ZNSt3__114__bit_iteratorINS_6vectorIbNS_9allocatorIbEEEELb0ELm0EEC1B8ue170006EPmj, symObjAddr: 0xF79C, symBinAddr: 0x100011220, symSize: 0x3C }
  - { offsetInCU: 0x2023A, offset: 0x2023A, size: 0x8, addend: 0x0, symName: __ZNSt3__114__bit_iteratorINS_6vectorIbNS_9allocatorIbEEEELb0ELm0EEC2B8ue170006EPmj, symObjAddr: 0xF7D8, symBinAddr: 0x10001125C, symSize: 0x2C }
  - { offsetInCU: 0x20281, offset: 0x20281, size: 0x8, addend: 0x0, symName: __ZNSt3__16vectorIbNS_9allocatorIbEEE10__align_itB8ue170006Em, symObjAddr: 0xF890, symBinAddr: 0x100011314, symSize: 0x1C }
  - { offsetInCU: 0x202A5, offset: 0x202A5, size: 0x8, addend: 0x0, symName: __ZNSt3__16vectorIbNS_9allocatorIbEEE10__make_refB8ue170006Em, symObjAddr: 0xF8AC, symBinAddr: 0x100011330, symSize: 0x60 }
  - { offsetInCU: 0x202D9, offset: 0x202D9, size: 0x8, addend: 0x0, symName: __ZNSt3__16vectorIfNS_9allocatorIfEEE22__construct_one_at_endB8ue170006IJRKfEEEvDpOT_, symObjAddr: 0xF90C, symBinAddr: 0x100011390, symSize: 0x90 }
  - { offsetInCU: 0x20326, offset: 0x20326, size: 0x8, addend: 0x0, symName: __ZNSt3__16vectorIfNS_9allocatorIfEEE21__push_back_slow_pathIRKfEEvOT_, symObjAddr: 0xF99C, symBinAddr: 0x100011420, symSize: 0xD8 }
  - { offsetInCU: 0x20383, offset: 0x20383, size: 0x8, addend: 0x0, symName: __ZNSt3__116allocator_traitsINS_9allocatorIfEEE9constructB8ue170006IfJRKfEvEEvRS2_PT_DpOT0_, symObjAddr: 0xFA74, symBinAddr: 0x1000114F8, symSize: 0x34 }
  - { offsetInCU: 0x203DA, offset: 0x203DA, size: 0x8, addend: 0x0, symName: __ZNSt3__19allocatorIfE9constructB8ue170006IfJRKfEEEvPT_DpOT0_, symObjAddr: 0xFAA8, symBinAddr: 0x10001152C, symSize: 0x28 }
  - { offsetInCU: 0x2042F, offset: 0x2042F, size: 0x8, addend: 0x0, symName: __ZNSt3__16vectorIP8MushroomNS_9allocatorIS2_EEE11__make_iterB8ue170006EPS2_, symObjAddr: 0xFAD0, symBinAddr: 0x100011554, symSize: 0x30 }
  - { offsetInCU: 0x20463, offset: 0x20463, size: 0x8, addend: 0x0, symName: __ZNSt3__111__wrap_iterIPP8MushroomEC1B8ue170006ES3_, symObjAddr: 0xFB00, symBinAddr: 0x100011584, symSize: 0x34 }
  - { offsetInCU: 0x2049A, offset: 0x2049A, size: 0x8, addend: 0x0, symName: __ZNSt3__111__wrap_iterIPP8MushroomEC2B8ue170006ES3_, symObjAddr: 0xFB34, symBinAddr: 0x1000115B8, symSize: 0x20 }
  - { offsetInCU: 0x204D1, offset: 0x204D1, size: 0x8, addend: 0x0, symName: __ZNKSt3__16vectorIbNS_9allocatorIbEEE10__make_refB8ue170006Em, symObjAddr: 0xFB54, symBinAddr: 0x1000115D8, symSize: 0x60 }
  - { offsetInCU: 0x20505, offset: 0x20505, size: 0x8, addend: 0x0, symName: __ZNSt3__121__bit_const_referenceINS_6vectorIbNS_9allocatorIbEEEEEC1B8ue170006EPKmm, symObjAddr: 0xFBB4, symBinAddr: 0x100011638, symSize: 0x3C }
  - { offsetInCU: 0x2054A, offset: 0x2054A, size: 0x8, addend: 0x0, symName: __ZNSt3__121__bit_const_referenceINS_6vectorIbNS_9allocatorIbEEEEEC2B8ue170006EPKmm, symObjAddr: 0xFBF0, symBinAddr: 0x100011674, symSize: 0x2C }
  - { offsetInCU: 0x7A30, offset: 0x2827F, size: 0x8, addend: 0x0, symName: __ZNSt3__112__to_addressB8ue170006IP7GP_NodeEEPT_S4_, symObjAddr: 0x2E44, symBinAddr: 0x1000135D0, symSize: 0x14 }
  - { offsetInCU: 0x7BE1, offset: 0x28430, size: 0x8, addend: 0x0, symName: __ZNSt3__119__allocate_at_leastB8ue170006INS_9allocatorIP7GP_NodeEEEENS_19__allocation_resultINS_16allocator_traitsIT_E7pointerEEERS7_m, symObjAddr: 0x51CC, symBinAddr: 0x10001410C, symSize: 0x40 }
  - { offsetInCU: 0x7C24, offset: 0x28473, size: 0x8, addend: 0x0, symName: __ZNSt3__142__uninitialized_allocator_move_if_noexceptB8ue170006INS_9allocatorIP7GP_NodeEENS_16reverse_iteratorIPS3_EES7_S3_vEET1_RT_T0_SB_S8_, symObjAddr: 0x5380, symBinAddr: 0x1000142C0, symSize: 0x78 }
  - { offsetInCU: 0x7CA1, offset: 0x284F0, size: 0x8, addend: 0x0, symName: __ZNSt3__14swapB8ue170006IPP7GP_NodeEENS_9enable_ifIXaasr21is_move_constructibleIT_EE5valuesr18is_move_assignableIS5_EE5valueEvE4typeERS5_S8_, symObjAddr: 0x5444, symBinAddr: 0x100014384, symSize: 0x3C }
  - { offsetInCU: 0x7CF2, offset: 0x28541, size: 0x8, addend: 0x0, symName: __ZNSt3__14moveB8ue170006INS_16reverse_iteratorIPP7GP_NodeEES5_EET0_T_S7_S6_, symObjAddr: 0x552C, symBinAddr: 0x10001446C, symSize: 0x78 }
  - { offsetInCU: 0x7D4C, offset: 0x2859B, size: 0x8, addend: 0x0, symName: __ZNSt3__16__moveB8ue170006INS_17_ClassicAlgPolicyENS_16reverse_iteratorIPP7GP_NodeEES6_S6_EENS_4pairIT0_T2_EES8_T1_S9_, symObjAddr: 0x55A4, symBinAddr: 0x1000144E4, symSize: 0x64 }
  - { offsetInCU: 0x7DB8, offset: 0x28607, size: 0x8, addend: 0x0, symName: __ZNSt3__123__dispatch_copy_or_moveB8ue170006INS_17_ClassicAlgPolicyENS_11__move_loopIS1_EENS_14__move_trivialENS_16reverse_iteratorIPP7GP_NodeEES9_S9_EENS_4pairIT2_T4_EESB_T3_SC_, symObjAddr: 0x5608, symBinAddr: 0x100014548, symSize: 0x64 }
  - { offsetInCU: 0x7E36, offset: 0x28685, size: 0x8, addend: 0x0, symName: __ZNSt3__121__unwrap_and_dispatchB8ue170006INS_10__overloadINS_11__move_loopINS_17_ClassicAlgPolicyEEENS_14__move_trivialEEENS_16reverse_iteratorIPP7GP_NodeEESB_SB_Li0EEENS_4pairIT0_T2_EESD_T1_SE_, symObjAddr: 0x566C, symBinAddr: 0x1000145AC, symSize: 0x12C }
  - { offsetInCU: 0x7EC6, offset: 0x28715, size: 0x8, addend: 0x0, symName: __ZNSt3__114__unwrap_rangeB8ue170006INS_16reverse_iteratorIPP7GP_NodeEES5_EENS_4pairIT0_S7_EET_S9_, symObjAddr: 0x5798, symBinAddr: 0x1000146D8, symSize: 0x84 }
  - { offsetInCU: 0x7FE6, offset: 0x28835, size: 0x8, addend: 0x0, symName: __ZNSt3__113__unwrap_iterB8ue170006INS_16reverse_iteratorIPP7GP_NodeEENS_18__unwrap_iter_implIS5_Lb0EEELi0EEEDTclsrT0_8__unwrapclsr3stdE7declvalIT_EEEES9_, symObjAddr: 0x58BC, symBinAddr: 0x1000147FC, symSize: 0x44 }
  - { offsetInCU: 0x802A, offset: 0x28879, size: 0x8, addend: 0x0, symName: __ZNSt3__19make_pairB8ue170006INS_16reverse_iteratorIPP7GP_NodeEES5_EENS_4pairINS_18__unwrap_ref_decayIT_E4typeENS7_IT0_E4typeEEEOS8_OSB_, symObjAddr: 0x5900, symBinAddr: 0x100014840, symSize: 0x38 }
  - { offsetInCU: 0x8079, offset: 0x288C8, size: 0x8, addend: 0x0, symName: __ZNSt3__114__rewrap_rangeB8ue170006INS_16reverse_iteratorIPP7GP_NodeEES5_EET_S6_T0_, symObjAddr: 0x5938, symBinAddr: 0x100014878, symSize: 0x5C }
  - { offsetInCU: 0x80C5, offset: 0x28914, size: 0x8, addend: 0x0, symName: __ZNSt3__113__rewrap_iterB8ue170006INS_16reverse_iteratorIPP7GP_NodeEES5_NS_18__unwrap_iter_implIS5_Lb0EEEEET_S8_T0_, symObjAddr: 0x5994, symBinAddr: 0x1000148D4, symSize: 0x74 }
  - { offsetInCU: 0x811A, offset: 0x28969, size: 0x8, addend: 0x0, symName: __ZNSt3__1neB8ue170006IPP7GP_NodeS3_EEbRKNS_16reverse_iteratorIT_EERKNS4_IT0_EE, symObjAddr: 0x5A08, symBinAddr: 0x100014948, symSize: 0x48 }
  - { offsetInCU: 0x88D5, offset: 0x29124, size: 0x8, addend: 0x0, symName: __ZNSt3__16vectorIP7GP_NodeNS_9allocatorIS2_EEE26__swap_out_circular_bufferERNS_14__split_bufferIS2_RS4_EE, symObjAddr: 0x4E6C, symBinAddr: 0x100013DAC, symSize: 0x110 }
  - { offsetInCU: 0xAB5E, offset: 0x2B3AD, size: 0x8, addend: 0x0, symName: __ZN2GPC2Ev, symObjAddr: 0x0, symBinAddr: 0x1000116A0, symSize: 0x108 }
  - { offsetInCU: 0xAB89, offset: 0x2B3D8, size: 0x8, addend: 0x0, symName: __ZNSt3__16vectorIP7GP_NodeNS_9allocatorIS2_EEEC1B8ue170006Ev, symObjAddr: 0x134, symBinAddr: 0x1000117A8, symSize: 0x2C }
  - { offsetInCU: 0xABB1, offset: 0x2B400, size: 0x8, addend: 0x0, symName: __ZNSt3__16vectorIP7GP_NodeNS_9allocatorIS2_EEEaSB8ue170006EOS5_, symObjAddr: 0x1C0, symBinAddr: 0x1000117D4, symSize: 0x34 }
  - { offsetInCU: 0xABE7, offset: 0x2B436, size: 0x8, addend: 0x0, symName: __ZNSt3__16vectorIP7GP_NodeNS_9allocatorIS2_EEED1B8ue170006Ev, symObjAddr: 0x1F4, symBinAddr: 0x100011808, symSize: 0x2C }
  - { offsetInCU: 0xAC10, offset: 0x2B45F, size: 0x8, addend: 0x0, symName: __ZN2GPC1Ev, symObjAddr: 0x220, symBinAddr: 0x100011834, symSize: 0x2C }
  - { offsetInCU: 0xAC3B, offset: 0x2B48A, size: 0x8, addend: 0x0, symName: __ZN2GPD2Ev, symObjAddr: 0x24C, symBinAddr: 0x100011860, symSize: 0x48 }
  - { offsetInCU: 0xAC66, offset: 0x2B4B5, size: 0x8, addend: 0x0, symName: __ZN2GPD1Ev, symObjAddr: 0x294, symBinAddr: 0x1000118A8, symSize: 0x2C }
  - { offsetInCU: 0xAC91, offset: 0x2B4E0, size: 0x8, addend: 0x0, symName: __ZN2GP18addMushroomToTrainEP8Mushroom, symObjAddr: 0x2C0, symBinAddr: 0x1000118D4, symSize: 0x34 }
  - { offsetInCU: 0xACC6, offset: 0x2B515, size: 0x8, addend: 0x0, symName: __ZN2GP17addMushroomToTestEP8Mushroom, symObjAddr: 0x360, symBinAddr: 0x100011908, symSize: 0x34 }
  - { offsetInCU: 0xACFB, offset: 0x2B54A, size: 0x8, addend: 0x0, symName: __ZN2GP18generatePopulationEv, symObjAddr: 0x394, symBinAddr: 0x10001193C, symSize: 0x1D8 }
  - { offsetInCU: 0xAD66, offset: 0x2B5B5, size: 0x8, addend: 0x0, symName: __ZNSt3__16vectorIP7GP_NodeNS_9allocatorIS2_EEE9push_backB8ue170006EOS2_, symObjAddr: 0x56C, symBinAddr: 0x100011B14, symSize: 0x6C }
  - { offsetInCU: 0xAD9C, offset: 0x2B5EB, size: 0x8, addend: 0x0, symName: __ZN2GP12generateTreeEiP7GP_Node, symObjAddr: 0x5D8, symBinAddr: 0x100011B80, symSize: 0x3C }
  - { offsetInCU: 0xADDF, offset: 0x2B62E, size: 0x8, addend: 0x0, symName: __ZNSt3__16vectorIP7GP_NodeNS_9allocatorIS2_EEEixB8ue170006Em, symObjAddr: 0x614, symBinAddr: 0x100011BBC, symSize: 0x24 }
  - { offsetInCU: 0xAE15, offset: 0x2B664, size: 0x8, addend: 0x0, symName: __ZN2GP19tournamentSelectionEv, symObjAddr: 0x638, symBinAddr: 0x100011BE0, symSize: 0x10C }
  - { offsetInCU: 0xAE92, offset: 0x2B6E1, size: 0x8, addend: 0x0, symName: __ZN2GP19getRandomIndividualEP7GP_Node, symObjAddr: 0x744, symBinAddr: 0x100011CEC, symSize: 0x28 }
  - { offsetInCU: 0xAEC7, offset: 0x2B716, size: 0x8, addend: 0x0, symName: __ZN2GP9crossoverEP7GP_NodeS1_, symObjAddr: 0x76C, symBinAddr: 0x100011D14, symSize: 0xAC }
  - { offsetInCU: 0xAF27, offset: 0x2B776, size: 0x8, addend: 0x0, symName: __ZN2GP8mutationEP7GP_Node, symObjAddr: 0x818, symBinAddr: 0x100011DC0, symSize: 0x70 }
  - { offsetInCU: 0xAF5C, offset: 0x2B7AB, size: 0x8, addend: 0x0, symName: __ZN2GP5trainEv, symObjAddr: 0x888, symBinAddr: 0x100011E30, symSize: 0x2CC }
  - { offsetInCU: 0xB050, offset: 0x2B89F, size: 0x8, addend: 0x0, symName: __ZN2GP17calculateAccuracyERKNSt3__16vectorIP8MushroomNS0_9allocatorIS3_EEEEP7GP_Node, symObjAddr: 0xD8C, symBinAddr: 0x1000120FC, symSize: 0x130 }
  - { offsetInCU: 0xB104, offset: 0x2B953, size: 0x8, addend: 0x0, symName: __ZN2GP4testEv, symObjAddr: 0xEFC, symBinAddr: 0x10001222C, symSize: 0x7EC }
  - { offsetInCU: 0xB261, offset: 0x2BAB0, size: 0x8, addend: 0x0, symName: __ZN2GP8classifyEP8MushroomP7GP_Node, symObjAddr: 0x1768, symBinAddr: 0x100012A18, symSize: 0x48 }
  - { offsetInCU: 0xB2B2, offset: 0x2BB01, size: 0x8, addend: 0x0, symName: __ZN2GP5statsERKNSt3__16vectorIbNS0_9allocatorIbEEEES6_, symObjAddr: 0x1954, symBinAddr: 0x100012A60, symSize: 0x3D4 }
  - { offsetInCU: 0xB385, offset: 0x2BBD4, size: 0x8, addend: 0x0, symName: __ZN2GP12outputsToCSVEv, symObjAddr: 0x1DC8, symBinAddr: 0x100012E34, symSize: 0x254 }
  - { offsetInCU: 0xB41C, offset: 0x2BC6B, size: 0x8, addend: 0x0, symName: __ZN2GP7sigmoidEf, symObjAddr: 0x2074, symBinAddr: 0x100013088, symSize: 0x3C }
  - { offsetInCU: 0xB451, offset: 0x2BCA0, size: 0x8, addend: 0x0, symName: __ZN2GP5printEP7GP_Node, symObjAddr: 0x20B0, symBinAddr: 0x1000130C4, symSize: 0x3C }
  - { offsetInCU: 0xB486, offset: 0x2BCD5, size: 0x8, addend: 0x0, symName: __ZNKSt3__16vectorIP8MushroomNS_9allocatorIS2_EEEixB8ue170006Em, symObjAddr: 0x21E8, symBinAddr: 0x100013100, symSize: 0x24 }
  - { offsetInCU: 0xB4C6, offset: 0x2BD15, size: 0x8, addend: 0x0, symName: __ZNSt3__16vectorIP7GP_NodeNS_9allocatorIS2_EEEC2B8ue170006Ev, symObjAddr: 0x2478, symBinAddr: 0x100013124, symSize: 0x4C }
  - { offsetInCU: 0xB4EF, offset: 0x2BD3E, size: 0x8, addend: 0x0, symName: __ZNSt3__117__compressed_pairIPP7GP_NodeNS_9allocatorIS2_EEEC1B8ue170006IDnNS_18__default_init_tagEEEOT_OT0_, symObjAddr: 0x24C4, symBinAddr: 0x100013170, symSize: 0x3C }
  - { offsetInCU: 0xB546, offset: 0x2BD95, size: 0x8, addend: 0x0, symName: __ZNSt3__117__compressed_pairIPP7GP_NodeNS_9allocatorIS2_EEEC2B8ue170006IDnNS_18__default_init_tagEEEOT_OT0_, symObjAddr: 0x2500, symBinAddr: 0x1000131AC, symSize: 0x40 }
  - { offsetInCU: 0xB59D, offset: 0x2BDEC, size: 0x8, addend: 0x0, symName: __ZNSt3__122__compressed_pair_elemIPP7GP_NodeLi0ELb0EEC2B8ue170006IDnvEEOT_, symObjAddr: 0x2540, symBinAddr: 0x1000131EC, symSize: 0x1C }
  - { offsetInCU: 0xB5DE, offset: 0x2BE2D, size: 0x8, addend: 0x0, symName: __ZNSt3__122__compressed_pair_elemINS_9allocatorIP7GP_NodeEELi1ELb1EEC2B8ue170006ENS_18__default_init_tagE, symObjAddr: 0x255C, symBinAddr: 0x100013208, symSize: 0x2C }
  - { offsetInCU: 0xB611, offset: 0x2BE60, size: 0x8, addend: 0x0, symName: __ZNSt3__19allocatorIP7GP_NodeEC2B8ue170006Ev, symObjAddr: 0x2588, symBinAddr: 0x100013234, symSize: 0x2C }
  - { offsetInCU: 0xB63A, offset: 0x2BE89, size: 0x8, addend: 0x0, symName: __ZNSt3__116__non_trivial_ifILb1ENS_9allocatorIP7GP_NodeEEEC2B8ue170006Ev, symObjAddr: 0x25B4, symBinAddr: 0x100013260, symSize: 0x14 }
  - { offsetInCU: 0xB663, offset: 0x2BEB2, size: 0x8, addend: 0x0, symName: __ZNSt3__16vectorIP7GP_NodeNS_9allocatorIS2_EEED2B8ue170006Ev, symObjAddr: 0x2AE8, symBinAddr: 0x100013274, symSize: 0x44 }
  - { offsetInCU: 0xB68C, offset: 0x2BEDB, size: 0x8, addend: 0x0, symName: __ZNSt3__16vectorIP7GP_NodeNS_9allocatorIS2_EEE16__destroy_vectorC1B8ue170006ERS5_, symObjAddr: 0x2B2C, symBinAddr: 0x1000132B8, symSize: 0x34 }
  - { offsetInCU: 0xB6C4, offset: 0x2BF13, size: 0x8, addend: 0x0, symName: __ZNSt3__16vectorIP7GP_NodeNS_9allocatorIS2_EEE16__destroy_vectorclB8ue170006Ev, symObjAddr: 0x2B60, symBinAddr: 0x1000132EC, symSize: 0x90 }
  - { offsetInCU: 0xB6E9, offset: 0x2BF38, size: 0x8, addend: 0x0, symName: __ZNSt3__16vectorIP7GP_NodeNS_9allocatorIS2_EEE16__destroy_vectorC2B8ue170006ERS5_, symObjAddr: 0x2BF0, symBinAddr: 0x10001337C, symSize: 0x20 }
  - { offsetInCU: 0xB721, offset: 0x2BF70, size: 0x8, addend: 0x0, symName: __ZNSt3__16vectorIP7GP_NodeNS_9allocatorIS2_EEE7__clearB8ue170006Ev, symObjAddr: 0x2C10, symBinAddr: 0x10001339C, symSize: 0x28 }
  - { offsetInCU: 0xB746, offset: 0x2BF95, size: 0x8, addend: 0x0, symName: __ZNKSt3__16vectorIP7GP_NodeNS_9allocatorIS2_EEE17__annotate_deleteB8ue170006Ev, symObjAddr: 0x2C38, symBinAddr: 0x1000133C4, symSize: 0xB8 }
  - { offsetInCU: 0xB76B, offset: 0x2BFBA, size: 0x8, addend: 0x0, symName: __ZNSt3__116allocator_traitsINS_9allocatorIP7GP_NodeEEE10deallocateB8ue170006ERS4_PS3_m, symObjAddr: 0x2CF0, symBinAddr: 0x10001347C, symSize: 0x34 }
  - { offsetInCU: 0xB7AD, offset: 0x2BFFC, size: 0x8, addend: 0x0, symName: __ZNSt3__16vectorIP7GP_NodeNS_9allocatorIS2_EEE7__allocB8ue170006Ev, symObjAddr: 0x2D24, symBinAddr: 0x1000134B0, symSize: 0x28 }
  - { offsetInCU: 0xB7D2, offset: 0x2C021, size: 0x8, addend: 0x0, symName: __ZNKSt3__16vectorIP7GP_NodeNS_9allocatorIS2_EEE8capacityB8ue170006Ev, symObjAddr: 0x2D4C, symBinAddr: 0x1000134D8, symSize: 0x40 }
  - { offsetInCU: 0xB7F7, offset: 0x2C046, size: 0x8, addend: 0x0, symName: __ZNSt3__16vectorIP7GP_NodeNS_9allocatorIS2_EEE22__base_destruct_at_endB8ue170006EPS2_, symObjAddr: 0x2D8C, symBinAddr: 0x100013518, symSize: 0x8C }
  - { offsetInCU: 0xB83A, offset: 0x2C089, size: 0x8, addend: 0x0, symName: __ZNSt3__116allocator_traitsINS_9allocatorIP7GP_NodeEEE7destroyB8ue170006IS3_vEEvRS4_PT_, symObjAddr: 0x2E18, symBinAddr: 0x1000135A4, symSize: 0x2C }
  - { offsetInCU: 0xB877, offset: 0x2C0C6, size: 0x8, addend: 0x0, symName: __ZNSt3__19allocatorIP7GP_NodeE7destroyB8ue170006EPS2_, symObjAddr: 0x2E58, symBinAddr: 0x1000135E4, symSize: 0x14 }
  - { offsetInCU: 0xB8AA, offset: 0x2C0F9, size: 0x8, addend: 0x0, symName: __ZNKSt3__16vectorIP7GP_NodeNS_9allocatorIS2_EEE31__annotate_contiguous_containerB8ue170006EPKvS7_S7_S7_, symObjAddr: 0x2E6C, symBinAddr: 0x1000135F8, symSize: 0x20 }
  - { offsetInCU: 0xB8FB, offset: 0x2C14A, size: 0x8, addend: 0x0, symName: __ZNKSt3__16vectorIP7GP_NodeNS_9allocatorIS2_EEE4dataB8ue170006Ev, symObjAddr: 0x2E8C, symBinAddr: 0x100013618, symSize: 0x28 }
  - { offsetInCU: 0xB920, offset: 0x2C16F, size: 0x8, addend: 0x0, symName: __ZNKSt3__16vectorIP7GP_NodeNS_9allocatorIS2_EEE4sizeB8ue170006Ev, symObjAddr: 0x2EB4, symBinAddr: 0x100013640, symSize: 0x28 }
  - { offsetInCU: 0xB945, offset: 0x2C194, size: 0x8, addend: 0x0, symName: __ZNSt3__19allocatorIP7GP_NodeE10deallocateB8ue170006EPS2_m, symObjAddr: 0x2EDC, symBinAddr: 0x100013668, symSize: 0x40 }
  - { offsetInCU: 0xB986, offset: 0x2C1D5, size: 0x8, addend: 0x0, symName: __ZNSt3__117__compressed_pairIPP7GP_NodeNS_9allocatorIS2_EEE6secondB8ue170006Ev, symObjAddr: 0x2F1C, symBinAddr: 0x1000136A8, symSize: 0x24 }
  - { offsetInCU: 0xB9AB, offset: 0x2C1FA, size: 0x8, addend: 0x0, symName: __ZNSt3__122__compressed_pair_elemINS_9allocatorIP7GP_NodeEELi1ELb1EE5__getB8ue170006Ev, symObjAddr: 0x2F40, symBinAddr: 0x1000136CC, symSize: 0x14 }
  - { offsetInCU: 0xB9D0, offset: 0x2C21F, size: 0x8, addend: 0x0, symName: __ZNKSt3__16vectorIP7GP_NodeNS_9allocatorIS2_EEE9__end_capB8ue170006Ev, symObjAddr: 0x2F54, symBinAddr: 0x1000136E0, symSize: 0x28 }
  - { offsetInCU: 0xB9F5, offset: 0x2C244, size: 0x8, addend: 0x0, symName: __ZNKSt3__117__compressed_pairIPP7GP_NodeNS_9allocatorIS2_EEE5firstB8ue170006Ev, symObjAddr: 0x2F7C, symBinAddr: 0x100013708, symSize: 0x24 }
  - { offsetInCU: 0xBA1A, offset: 0x2C269, size: 0x8, addend: 0x0, symName: __ZNKSt3__122__compressed_pair_elemIPP7GP_NodeLi0ELb0EE5__getB8ue170006Ev, symObjAddr: 0x2FA0, symBinAddr: 0x10001372C, symSize: 0x14 }
  - { offsetInCU: 0xBA3E, offset: 0x2C28D, size: 0x8, addend: 0x0, symName: __ZNSt3__16vectorIP7GP_NodeNS_9allocatorIS2_EEE13__move_assignERS5_NS_17integral_constantIbLb1EEE, symObjAddr: 0x3298, symBinAddr: 0x100013740, symSize: 0x94 }
  - { offsetInCU: 0xBA7E, offset: 0x2C2CD, size: 0x8, addend: 0x0, symName: __ZNSt3__16vectorIP7GP_NodeNS_9allocatorIS2_EEE13__vdeallocateEv, symObjAddr: 0x332C, symBinAddr: 0x1000137D4, symSize: 0x94 }
  - { offsetInCU: 0xBAA5, offset: 0x2C2F4, size: 0x8, addend: 0x0, symName: __ZNSt3__16vectorIP7GP_NodeNS_9allocatorIS2_EEE19__move_assign_allocB8ue170006ERS5_, symObjAddr: 0x33C0, symBinAddr: 0x100013868, symSize: 0x2C }
  - { offsetInCU: 0xBAD9, offset: 0x2C328, size: 0x8, addend: 0x0, symName: __ZNSt3__16vectorIP7GP_NodeNS_9allocatorIS2_EEE9__end_capB8ue170006Ev, symObjAddr: 0x33EC, symBinAddr: 0x100013894, symSize: 0x28 }
  - { offsetInCU: 0xBAFE, offset: 0x2C34D, size: 0x8, addend: 0x0, symName: __ZNSt3__16vectorIP7GP_NodeNS_9allocatorIS2_EEE5clearB8ue170006Ev, symObjAddr: 0x3414, symBinAddr: 0x1000138BC, symSize: 0x44 }
  - { offsetInCU: 0xBB32, offset: 0x2C381, size: 0x8, addend: 0x0, symName: __ZNKSt3__16vectorIP7GP_NodeNS_9allocatorIS2_EEE17__annotate_shrinkB8ue170006Em, symObjAddr: 0x3458, symBinAddr: 0x100013900, symSize: 0xB4 }
  - { offsetInCU: 0xBB66, offset: 0x2C3B5, size: 0x8, addend: 0x0, symName: __ZNSt3__16vectorIP7GP_NodeNS_9allocatorIS2_EEE19__move_assign_allocB8ue170006ERS5_NS_17integral_constantIbLb1EEE, symObjAddr: 0x350C, symBinAddr: 0x1000139B4, symSize: 0x38 }
  - { offsetInCU: 0xBBA5, offset: 0x2C3F4, size: 0x8, addend: 0x0, symName: __ZNSt3__117__compressed_pairIPP7GP_NodeNS_9allocatorIS2_EEE5firstB8ue170006Ev, symObjAddr: 0x3544, symBinAddr: 0x1000139EC, symSize: 0x24 }
  - { offsetInCU: 0xBBCA, offset: 0x2C419, size: 0x8, addend: 0x0, symName: __ZNSt3__122__compressed_pair_elemIPP7GP_NodeLi0ELb0EE5__getB8ue170006Ev, symObjAddr: 0x3568, symBinAddr: 0x100013A10, symSize: 0x14 }
  - { offsetInCU: 0xBC17, offset: 0x2C466, size: 0x8, addend: 0x0, symName: __ZNSt3__16vectorIP7GP_NodeNS_9allocatorIS2_EEE22__construct_one_at_endB8ue170006IJS2_EEEvDpOT_, symObjAddr: 0x4AE4, symBinAddr: 0x100013A24, symSize: 0x90 }
  - { offsetInCU: 0xBC64, offset: 0x2C4B3, size: 0x8, addend: 0x0, symName: __ZNSt3__16vectorIP7GP_NodeNS_9allocatorIS2_EEE21__push_back_slow_pathIS2_EEvOT_, symObjAddr: 0x4B74, symBinAddr: 0x100013AB4, symSize: 0xD8 }
  - { offsetInCU: 0xBCDA, offset: 0x2C529, size: 0x8, addend: 0x0, symName: __ZNSt3__16vectorIP7GP_NodeNS_9allocatorIS2_EEE21_ConstructTransactionC1B8ue170006ERS5_m, symObjAddr: 0x4C4C, symBinAddr: 0x100013B8C, symSize: 0x3C }
  - { offsetInCU: 0xBD21, offset: 0x2C570, size: 0x8, addend: 0x0, symName: __ZNSt3__116allocator_traitsINS_9allocatorIP7GP_NodeEEE9constructB8ue170006IS3_JS3_EvEEvRS4_PT_DpOT0_, symObjAddr: 0x4C88, symBinAddr: 0x100013BC8, symSize: 0x34 }
  - { offsetInCU: 0xBD78, offset: 0x2C5C7, size: 0x8, addend: 0x0, symName: __ZNSt3__16vectorIP7GP_NodeNS_9allocatorIS2_EEE21_ConstructTransactionD1B8ue170006Ev, symObjAddr: 0x4CBC, symBinAddr: 0x100013BFC, symSize: 0x2C }
  - { offsetInCU: 0xBDA1, offset: 0x2C5F0, size: 0x8, addend: 0x0, symName: __ZNSt3__16vectorIP7GP_NodeNS_9allocatorIS2_EEE21_ConstructTransactionC2B8ue170006ERS5_m, symObjAddr: 0x4CE8, symBinAddr: 0x100013C28, symSize: 0x44 }
  - { offsetInCU: 0xBDE8, offset: 0x2C637, size: 0x8, addend: 0x0, symName: __ZNSt3__19allocatorIP7GP_NodeE9constructB8ue170006IS2_JS2_EEEvPT_DpOT0_, symObjAddr: 0x4D2C, symBinAddr: 0x100013C6C, symSize: 0x28 }
  - { offsetInCU: 0xBE3D, offset: 0x2C68C, size: 0x8, addend: 0x0, symName: __ZNSt3__16vectorIP7GP_NodeNS_9allocatorIS2_EEE21_ConstructTransactionD2B8ue170006Ev, symObjAddr: 0x4D54, symBinAddr: 0x100013C94, symSize: 0x20 }
  - { offsetInCU: 0xBE65, offset: 0x2C6B4, size: 0x8, addend: 0x0, symName: __ZNKSt3__16vectorIP7GP_NodeNS_9allocatorIS2_EEE11__recommendB8ue170006Em, symObjAddr: 0x4D74, symBinAddr: 0x100013CB4, symSize: 0xB4 }
  - { offsetInCU: 0xBEB9, offset: 0x2C708, size: 0x8, addend: 0x0, symName: __ZNSt3__114__split_bufferIP7GP_NodeRNS_9allocatorIS2_EEEC1EmmS5_, symObjAddr: 0x4E28, symBinAddr: 0x100013D68, symSize: 0x44 }
  - { offsetInCU: 0xBF0E, offset: 0x2C75D, size: 0x8, addend: 0x0, symName: __ZNSt3__114__split_bufferIP7GP_NodeRNS_9allocatorIS2_EEED1Ev, symObjAddr: 0x4F7C, symBinAddr: 0x100013EBC, symSize: 0x2C }
  - { offsetInCU: 0xBF38, offset: 0x2C787, size: 0x8, addend: 0x0, symName: __ZNKSt3__16vectorIP7GP_NodeNS_9allocatorIS2_EEE8max_sizeEv, symObjAddr: 0x4FA8, symBinAddr: 0x100013EE8, symSize: 0x60 }
  - { offsetInCU: 0xBF5F, offset: 0x2C7AE, size: 0x8, addend: 0x0, symName: __ZNKSt3__16vectorIP7GP_NodeNS_9allocatorIS2_EEE20__throw_length_errorB8ue170006Ev, symObjAddr: 0x5008, symBinAddr: 0x100013F48, symSize: 0x1C }
  - { offsetInCU: 0xBF8E, offset: 0x2C7DD, size: 0x8, addend: 0x0, symName: __ZNSt3__116allocator_traitsINS_9allocatorIP7GP_NodeEEE8max_sizeB8ue170006IS4_vEEmRKS4_, symObjAddr: 0x5024, symBinAddr: 0x100013F64, symSize: 0x24 }
  - { offsetInCU: 0xBFBC, offset: 0x2C80B, size: 0x8, addend: 0x0, symName: __ZNKSt3__16vectorIP7GP_NodeNS_9allocatorIS2_EEE7__allocB8ue170006Ev, symObjAddr: 0x5048, symBinAddr: 0x100013F88, symSize: 0x28 }
  - { offsetInCU: 0xBFE1, offset: 0x2C830, size: 0x8, addend: 0x0, symName: __ZNKSt3__19allocatorIP7GP_NodeE8max_sizeB8ue170006Ev, symObjAddr: 0x5070, symBinAddr: 0x100013FB0, symSize: 0x14 }
  - { offsetInCU: 0xC006, offset: 0x2C855, size: 0x8, addend: 0x0, symName: __ZNKSt3__117__compressed_pairIPP7GP_NodeNS_9allocatorIS2_EEE6secondB8ue170006Ev, symObjAddr: 0x5084, symBinAddr: 0x100013FC4, symSize: 0x24 }
  - { offsetInCU: 0xC02B, offset: 0x2C87A, size: 0x8, addend: 0x0, symName: __ZNKSt3__122__compressed_pair_elemINS_9allocatorIP7GP_NodeEELi1ELb1EE5__getB8ue170006Ev, symObjAddr: 0x50A8, symBinAddr: 0x100013FE8, symSize: 0x14 }
  - { offsetInCU: 0xC050, offset: 0x2C89F, size: 0x8, addend: 0x0, symName: __ZNSt3__114__split_bufferIP7GP_NodeRNS_9allocatorIS2_EEEC2EmmS5_, symObjAddr: 0x50BC, symBinAddr: 0x100013FFC, symSize: 0xD4 }
  - { offsetInCU: 0xC0C3, offset: 0x2C912, size: 0x8, addend: 0x0, symName: __ZNSt3__117__compressed_pairIPP7GP_NodeRNS_9allocatorIS2_EEEC1B8ue170006IDnS6_EEOT_OT0_, symObjAddr: 0x5190, symBinAddr: 0x1000140D0, symSize: 0x3C }
  - { offsetInCU: 0xC11A, offset: 0x2C969, size: 0x8, addend: 0x0, symName: __ZNSt3__114__split_bufferIP7GP_NodeRNS_9allocatorIS2_EEE7__allocB8ue170006Ev, symObjAddr: 0x520C, symBinAddr: 0x10001414C, symSize: 0x28 }
  - { offsetInCU: 0xC13F, offset: 0x2C98E, size: 0x8, addend: 0x0, symName: __ZNSt3__114__split_bufferIP7GP_NodeRNS_9allocatorIS2_EEE9__end_capB8ue170006Ev, symObjAddr: 0x5234, symBinAddr: 0x100014174, symSize: 0x28 }
  - { offsetInCU: 0xC164, offset: 0x2C9B3, size: 0x8, addend: 0x0, symName: __ZNSt3__117__compressed_pairIPP7GP_NodeRNS_9allocatorIS2_EEEC2B8ue170006IDnS6_EEOT_OT0_, symObjAddr: 0x525C, symBinAddr: 0x10001419C, symSize: 0x48 }
  - { offsetInCU: 0xC1BB, offset: 0x2CA0A, size: 0x8, addend: 0x0, symName: __ZNSt3__122__compressed_pair_elemIRNS_9allocatorIP7GP_NodeEELi1ELb0EEC2B8ue170006IS5_vEEOT_, symObjAddr: 0x52A4, symBinAddr: 0x1000141E4, symSize: 0x20 }
  - { offsetInCU: 0xC1FC, offset: 0x2CA4B, size: 0x8, addend: 0x0, symName: __ZNSt3__19allocatorIP7GP_NodeE8allocateB8ue170006Em, symObjAddr: 0x52C4, symBinAddr: 0x100014204, symSize: 0x58 }
  - { offsetInCU: 0xC22F, offset: 0x2CA7E, size: 0x8, addend: 0x0, symName: __ZNSt3__117__compressed_pairIPP7GP_NodeRNS_9allocatorIS2_EEE6secondB8ue170006Ev, symObjAddr: 0x531C, symBinAddr: 0x10001425C, symSize: 0x28 }
  - { offsetInCU: 0xC254, offset: 0x2CAA3, size: 0x8, addend: 0x0, symName: __ZNSt3__122__compressed_pair_elemIRNS_9allocatorIP7GP_NodeEELi1ELb0EE5__getB8ue170006Ev, symObjAddr: 0x5344, symBinAddr: 0x100014284, symSize: 0x18 }
  - { offsetInCU: 0xC279, offset: 0x2CAC8, size: 0x8, addend: 0x0, symName: __ZNSt3__117__compressed_pairIPP7GP_NodeRNS_9allocatorIS2_EEE5firstB8ue170006Ev, symObjAddr: 0x535C, symBinAddr: 0x10001429C, symSize: 0x24 }
  - { offsetInCU: 0xC29E, offset: 0x2CAED, size: 0x8, addend: 0x0, symName: __ZNSt3__116reverse_iteratorIPP7GP_NodeEC1B8ue170006ES3_, symObjAddr: 0x53F8, symBinAddr: 0x100014338, symSize: 0x34 }
  - { offsetInCU: 0xC2D5, offset: 0x2CB24, size: 0x8, addend: 0x0, symName: __ZNKSt3__116reverse_iteratorIPP7GP_NodeE4baseB8ue170006Ev, symObjAddr: 0x542C, symBinAddr: 0x10001436C, symSize: 0x18 }
  - { offsetInCU: 0xC2FA, offset: 0x2CB49, size: 0x8, addend: 0x0, symName: __ZNKSt3__16vectorIP7GP_NodeNS_9allocatorIS2_EEE14__annotate_newB8ue170006Em, symObjAddr: 0x5480, symBinAddr: 0x1000143C0, symSize: 0xAC }
  - { offsetInCU: 0xC347, offset: 0x2CB96, size: 0x8, addend: 0x0, symName: __ZNKSt3__111__move_loopINS_17_ClassicAlgPolicyEEclB8ue170006INS_16reverse_iteratorIPP7GP_NodeEES8_S8_EENS_4pairIT_T1_EESA_T0_SB_, symObjAddr: 0x581C, symBinAddr: 0x10001475C, symSize: 0xA0 }
  - { offsetInCU: 0xC3B1, offset: 0x2CC00, size: 0x8, addend: 0x0, symName: __ZNSt3__18_IterOpsINS_17_ClassicAlgPolicyEE11__iter_moveB8ue170006IRNS_16reverse_iteratorIPP7GP_NodeEEEENS_9enable_ifIXsr12is_referenceIDTdeclsr3stdE7declvalIRT_EEEEE5valueEDTclsr3stdE4movedeclsr3stdE7declvalISC_EEEEE4typeEOSB_, symObjAddr: 0x5A50, symBinAddr: 0x100014990, symSize: 0x28 }
  - { offsetInCU: 0xC3DD, offset: 0x2CC2C, size: 0x8, addend: 0x0, symName: __ZNKSt3__116reverse_iteratorIPP7GP_NodeEdeB8ue170006Ev, symObjAddr: 0x5A78, symBinAddr: 0x1000149B8, symSize: 0x28 }
  - { offsetInCU: 0xC410, offset: 0x2CC5F, size: 0x8, addend: 0x0, symName: __ZNSt3__116reverse_iteratorIPP7GP_NodeEppB8ue170006Ev, symObjAddr: 0x5AA0, symBinAddr: 0x1000149E0, symSize: 0x20 }
  - { offsetInCU: 0xC435, offset: 0x2CC84, size: 0x8, addend: 0x0, symName: __ZNSt3__18_IterOpsINS_17_ClassicAlgPolicyEE25__validate_iter_referenceB8ue170006IRNS_16reverse_iteratorIPP7GP_NodeEEEEvv, symObjAddr: 0x5AC0, symBinAddr: 0x100014A00, symSize: 0x4 }
  - { offsetInCU: 0xC453, offset: 0x2CCA2, size: 0x8, addend: 0x0, symName: __ZNSt3__118__unwrap_iter_implINS_16reverse_iteratorIPP7GP_NodeEELb0EE8__unwrapB8ue170006ES5_, symObjAddr: 0x5AC4, symBinAddr: 0x100014A04, symSize: 0x24 }
  - { offsetInCU: 0xC47B, offset: 0x2CCCA, size: 0x8, addend: 0x0, symName: __ZNSt3__14pairINS_16reverse_iteratorIPP7GP_NodeEES5_EC1B8ue170006IS5_S5_LPv0EEEOT_OT0_, symObjAddr: 0x5AE8, symBinAddr: 0x100014A28, symSize: 0x3C }
  - { offsetInCU: 0xC4D8, offset: 0x2CD27, size: 0x8, addend: 0x0, symName: __ZNSt3__14pairINS_16reverse_iteratorIPP7GP_NodeEES5_EC2B8ue170006IS5_S5_LPv0EEEOT_OT0_, symObjAddr: 0x5B24, symBinAddr: 0x100014A64, symSize: 0x34 }
  - { offsetInCU: 0xC535, offset: 0x2CD84, size: 0x8, addend: 0x0, symName: __ZNSt3__118__unwrap_iter_implINS_16reverse_iteratorIPP7GP_NodeEELb0EE8__rewrapB8ue170006ES5_S5_, symObjAddr: 0x5B58, symBinAddr: 0x100014A98, symSize: 0x2C }
  - { offsetInCU: 0xC562, offset: 0x2CDB1, size: 0x8, addend: 0x0, symName: __ZNSt3__116reverse_iteratorIPP7GP_NodeEC2B8ue170006ES3_, symObjAddr: 0x5B84, symBinAddr: 0x100014AC4, symSize: 0x28 }
  - { offsetInCU: 0xC599, offset: 0x2CDE8, size: 0x8, addend: 0x0, symName: __ZNSt3__114__split_bufferIP7GP_NodeRNS_9allocatorIS2_EEED2Ev, symObjAddr: 0x5BAC, symBinAddr: 0x100014AEC, symSize: 0x8C }
  - { offsetInCU: 0xC5C4, offset: 0x2CE13, size: 0x8, addend: 0x0, symName: __ZNSt3__114__split_bufferIP7GP_NodeRNS_9allocatorIS2_EEE5clearB8ue170006Ev, symObjAddr: 0x5C38, symBinAddr: 0x100014B78, symSize: 0x28 }
  - { offsetInCU: 0xC5E9, offset: 0x2CE38, size: 0x8, addend: 0x0, symName: __ZNKSt3__114__split_bufferIP7GP_NodeRNS_9allocatorIS2_EEE8capacityB8ue170006Ev, symObjAddr: 0x5C60, symBinAddr: 0x100014BA0, symSize: 0x40 }
  - { offsetInCU: 0xC60E, offset: 0x2CE5D, size: 0x8, addend: 0x0, symName: __ZNSt3__114__split_bufferIP7GP_NodeRNS_9allocatorIS2_EEE17__destruct_at_endB8ue170006EPS2_, symObjAddr: 0x5CA0, symBinAddr: 0x100014BE0, symSize: 0x2C }
  - { offsetInCU: 0xC640, offset: 0x2CE8F, size: 0x8, addend: 0x0, symName: __ZNSt3__114__split_bufferIP7GP_NodeRNS_9allocatorIS2_EEE17__destruct_at_endB8ue170006EPS2_NS_17integral_constantIbLb0EEE, symObjAddr: 0x5CCC, symBinAddr: 0x100014C0C, symSize: 0x80 }
  - { offsetInCU: 0xC67F, offset: 0x2CECE, size: 0x8, addend: 0x0, symName: __ZNKSt3__114__split_bufferIP7GP_NodeRNS_9allocatorIS2_EEE9__end_capB8ue170006Ev, symObjAddr: 0x5D4C, symBinAddr: 0x100014C8C, symSize: 0x28 }
  - { offsetInCU: 0xC6A4, offset: 0x2CEF3, size: 0x8, addend: 0x0, symName: __ZNKSt3__117__compressed_pairIPP7GP_NodeRNS_9allocatorIS2_EEE5firstB8ue170006Ev, symObjAddr: 0x5D74, symBinAddr: 0x100014CB4, symSize: 0x24 }
  - { offsetInCU: 0x47BB, offset: 0x31772, size: 0x8, addend: 0x0, symName: __ZNSt3__1lsB8ue170006IcNS_11char_traitsIcEEEERNS_13basic_ostreamIT_T0_EES7_RKNS_8__iom_t5E, symObjAddr: 0x2E8, symBinAddr: 0x100014F78, symSize: 0x40 }
  - { offsetInCU: 0x4807, offset: 0x317BE, size: 0x8, addend: 0x0, symName: __ZNSt3__112setprecisionB8ue170006Ei, symObjAddr: 0x398, symBinAddr: 0x100014FB8, symSize: 0x2C }
  - { offsetInCU: 0x4833, offset: 0x317EA, size: 0x8, addend: 0x0, symName: __ZNSt3__13maxB8ue170006IiEERKT_S3_S3_, symObjAddr: 0xA1C, symBinAddr: 0x100015548, symSize: 0x2C }
  - { offsetInCU: 0x4876, offset: 0x3182D, size: 0x8, addend: 0x0, symName: __ZNSt3__13maxB8ue170006IiNS_6__lessIvvEEEERKT_S5_S5_T0_, symObjAddr: 0x1988, symBinAddr: 0x100015944, symSize: 0x54 }
  - { offsetInCU: 0x6A5C, offset: 0x33A13, size: 0x8, addend: 0x0, symName: __ZN7GP_NodeC2Ef, symObjAddr: 0x0, symBinAddr: 0x100014CD8, symSize: 0x68 }
  - { offsetInCU: 0x6A95, offset: 0x33A4C, size: 0x8, addend: 0x0, symName: __ZN7GP_NodeC1Ef, symObjAddr: 0x68, symBinAddr: 0x100014D40, symSize: 0x34 }
  - { offsetInCU: 0x6ACE, offset: 0x33A85, size: 0x8, addend: 0x0, symName: __ZN7GP_NodeD2Ev, symObjAddr: 0x9C, symBinAddr: 0x100014D74, symSize: 0x14 }
  - { offsetInCU: 0x6AF9, offset: 0x33AB0, size: 0x8, addend: 0x0, symName: __ZN7GP_NodeD1Ev, symObjAddr: 0xB0, symBinAddr: 0x100014D88, symSize: 0x2C }
  - { offsetInCU: 0x6B24, offset: 0x33ADB, size: 0x8, addend: 0x0, symName: __ZN7GP_Node5printEi, symObjAddr: 0xDC, symBinAddr: 0x100014DB4, symSize: 0x170 }
  - { offsetInCU: 0x6B76, offset: 0x33B2D, size: 0x8, addend: 0x0, symName: __ZN7GP_Node6isLeafEv, symObjAddr: 0x294, symBinAddr: 0x100014F24, symSize: 0x54 }
  - { offsetInCU: 0x6B9D, offset: 0x33B54, size: 0x8, addend: 0x0, symName: __ZN7GP_Node8getInputEv, symObjAddr: 0x448, symBinAddr: 0x100014FE4, symSize: 0x18 }
  - { offsetInCU: 0x6BC4, offset: 0x33B7B, size: 0x8, addend: 0x0, symName: __ZN7GP_Node8setInputEf, symObjAddr: 0x460, symBinAddr: 0x100014FFC, symSize: 0x20 }
  - { offsetInCU: 0x6BF9, offset: 0x33BB0, size: 0x8, addend: 0x0, symName: __ZN7GP_Node18activationFunctionEf, symObjAddr: 0x480, symBinAddr: 0x10001501C, symSize: 0x3C }
  - { offsetInCU: 0x6C2E, offset: 0x33BE5, size: 0x8, addend: 0x0, symName: __ZN7GP_Node7getLeftEv, symObjAddr: 0x4E0, symBinAddr: 0x100015058, symSize: 0x18 }
  - { offsetInCU: 0x6C55, offset: 0x33C0C, size: 0x8, addend: 0x0, symName: __ZN7GP_Node8getRightEv, symObjAddr: 0x4F8, symBinAddr: 0x100015070, symSize: 0x18 }
  - { offsetInCU: 0x6C7C, offset: 0x33C33, size: 0x8, addend: 0x0, symName: __ZN7GP_Node7setLeftEPS_, symObjAddr: 0x510, symBinAddr: 0x100015088, symSize: 0x20 }
  - { offsetInCU: 0x6CB1, offset: 0x33C68, size: 0x8, addend: 0x0, symName: __ZN7GP_Node8setRightEPS_, symObjAddr: 0x530, symBinAddr: 0x1000150A8, symSize: 0x20 }
  - { offsetInCU: 0x6CE6, offset: 0x33C9D, size: 0x8, addend: 0x0, symName: __ZN7GP_Node10setFitnessEf, symObjAddr: 0x550, symBinAddr: 0x1000150C8, symSize: 0x20 }
  - { offsetInCU: 0x6D1B, offset: 0x33CD2, size: 0x8, addend: 0x0, symName: __ZN7GP_Node10getFitnessEv, symObjAddr: 0x570, symBinAddr: 0x1000150E8, symSize: 0x18 }
  - { offsetInCU: 0x6D42, offset: 0x33CF9, size: 0x8, addend: 0x0, symName: __ZN7GP_Node12generateTreeEiiRKNSt3__16vectorIP8MushroomNS0_9allocatorIS3_EEEE, symObjAddr: 0x588, symBinAddr: 0x100015100, symSize: 0x1A0 }
  - { offsetInCU: 0x6DBE, offset: 0x33D75, size: 0x8, addend: 0x0, symName: __ZN7GP_Node4copyEPS_, symObjAddr: 0x774, symBinAddr: 0x1000152A0, symSize: 0x110 }
  - { offsetInCU: 0x6DF3, offset: 0x33DAA, size: 0x8, addend: 0x0, symName: __ZN7GP_Node9crossoverEPS_, symObjAddr: 0x884, symBinAddr: 0x1000153B0, symSize: 0x58 }
  - { offsetInCU: 0x6E44, offset: 0x33DFB, size: 0x8, addend: 0x0, symName: __ZN7GP_Node6mutateEv, symObjAddr: 0x8DC, symBinAddr: 0x100015408, symSize: 0xB8 }
  - { offsetInCU: 0x6E6B, offset: 0x33E22, size: 0x8, addend: 0x0, symName: __ZN7GP_Node8getDepthEv, symObjAddr: 0x994, symBinAddr: 0x1000154C0, symSize: 0x88 }
  - { offsetInCU: 0x6E92, offset: 0x33E49, size: 0x8, addend: 0x0, symName: __ZN7GP_Node16getRandomGP_NodeEv, symObjAddr: 0xA48, symBinAddr: 0x100015574, symSize: 0x8C }
  - { offsetInCU: 0x6EB9, offset: 0x33E70, size: 0x8, addend: 0x0, symName: __ZN7GP_Node12setOperationEi, symObjAddr: 0xAD4, symBinAddr: 0x100015600, symSize: 0x20 }
  - { offsetInCU: 0x6EEE, offset: 0x33EA5, size: 0x8, addend: 0x0, symName: __ZN7GP_Node12getOperationEv, symObjAddr: 0xAF4, symBinAddr: 0x100015620, symSize: 0x18 }
  - { offsetInCU: 0x6F15, offset: 0x33ECC, size: 0x8, addend: 0x0, symName: __ZN7GP_Node12classifyBaseEP8Mushroom, symObjAddr: 0xB0C, symBinAddr: 0x100015638, symSize: 0x30 }
  - { offsetInCU: 0x6F4A, offset: 0x33F01, size: 0x8, addend: 0x0, symName: __ZN7GP_Node8classifyEP8Mushroomi, symObjAddr: 0xB3C, symBinAddr: 0x100015668, symSize: 0x1CC }
  - { offsetInCU: 0x6FA9, offset: 0x33F60, size: 0x8, addend: 0x0, symName: __Z3powB8ue170006ff, symObjAddr: 0xD24, symBinAddr: 0x100015850, symSize: 0x2C }
  - { offsetInCU: 0x6FE6, offset: 0x33F9D, size: 0x8, addend: 0x0, symName: __Z3sinB8ue170006f, symObjAddr: 0xD50, symBinAddr: 0x10001587C, symSize: 0x24 }
  - { offsetInCU: 0x7014, offset: 0x33FCB, size: 0x8, addend: 0x0, symName: __Z3cosB8ue170006f, symObjAddr: 0xD74, symBinAddr: 0x1000158A0, symSize: 0x24 }
  - { offsetInCU: 0x7042, offset: 0x33FF9, size: 0x8, addend: 0x0, symName: __ZNSt3__18__iom_t5C1B8ue170006Ei, symObjAddr: 0xE1C, symBinAddr: 0x1000158C4, symSize: 0x34 }
  - { offsetInCU: 0x7079, offset: 0x34030, size: 0x8, addend: 0x0, symName: __ZNSt3__18__iom_t5C2B8ue170006Ei, symObjAddr: 0xE50, symBinAddr: 0x1000158F8, symSize: 0x20 }
  - { offsetInCU: 0x70CE, offset: 0x34085, size: 0x8, addend: 0x0, symName: __ZNSt3__18ios_base9precisionB8ue170006El, symObjAddr: 0x195C, symBinAddr: 0x100015918, symSize: 0x2C }
  - { offsetInCU: 0x7127, offset: 0x340DE, size: 0x8, addend: 0x0, symName: __ZNKSt3__16__lessIvvEclB8ue170006IiiEEbRKT_RKT0_, symObjAddr: 0x19DC, symBinAddr: 0x100015998, symSize: 0x34 }
  - { offsetInCU: 0x29FD, offset: 0x36B47, size: 0x8, addend: 0x0, symName: __ZN8MushroomC2Effffffffb, symObjAddr: 0x0, symBinAddr: 0x1000159CC, symSize: 0x8C }
  - { offsetInCU: 0x2AA6, offset: 0x36BF0, size: 0x8, addend: 0x0, symName: __ZN8MushroomC1Effffffffb, symObjAddr: 0x8C, symBinAddr: 0x100015A58, symSize: 0x80 }
  - { offsetInCU: 0x2B4F, offset: 0x36C99, size: 0x8, addend: 0x0, symName: __ZN8MushroomD2Ev, symObjAddr: 0x10C, symBinAddr: 0x100015AD8, symSize: 0x14 }
  - { offsetInCU: 0x2B7A, offset: 0x36CC4, size: 0x8, addend: 0x0, symName: __ZN8MushroomD1Ev, symObjAddr: 0x120, symBinAddr: 0x100015AEC, symSize: 0x2C }
  - { offsetInCU: 0x2BA5, offset: 0x36CEF, size: 0x8, addend: 0x0, symName: __ZN8Mushroom5printEv, symObjAddr: 0x14C, symBinAddr: 0x100015B18, symSize: 0x50 }
  - { offsetInCU: 0x2BCC, offset: 0x36D16, size: 0x8, addend: 0x0, symName: __ZN8Mushroom14getCapDiameterEv, symObjAddr: 0x268, symBinAddr: 0x100015B68, symSize: 0x18 }
  - { offsetInCU: 0x2BF3, offset: 0x36D3D, size: 0x8, addend: 0x0, symName: __ZN8Mushroom11getCapShapeEv, symObjAddr: 0x280, symBinAddr: 0x100015B80, symSize: 0x18 }
  - { offsetInCU: 0x2C1A, offset: 0x36D64, size: 0x8, addend: 0x0, symName: __ZN8Mushroom17getGillAttachmentEv, symObjAddr: 0x298, symBinAddr: 0x100015B98, symSize: 0x18 }
  - { offsetInCU: 0x2C41, offset: 0x36D8B, size: 0x8, addend: 0x0, symName: __ZN8Mushroom12getGillColorEv, symObjAddr: 0x2B0, symBinAddr: 0x100015BB0, symSize: 0x18 }
  - { offsetInCU: 0x2C68, offset: 0x36DB2, size: 0x8, addend: 0x0, symName: __ZN8Mushroom13getStemHeightEv, symObjAddr: 0x2C8, symBinAddr: 0x100015BC8, symSize: 0x18 }
  - { offsetInCU: 0x2C8F, offset: 0x36DD9, size: 0x8, addend: 0x0, symName: __ZN8Mushroom12getStemWidthEv, symObjAddr: 0x2E0, symBinAddr: 0x100015BE0, symSize: 0x18 }
  - { offsetInCU: 0x2CB6, offset: 0x36E00, size: 0x8, addend: 0x0, symName: __ZN8Mushroom12getStemColorEv, symObjAddr: 0x2F8, symBinAddr: 0x100015BF8, symSize: 0x18 }
  - { offsetInCU: 0x2CDD, offset: 0x36E27, size: 0x8, addend: 0x0, symName: __ZN8Mushroom9getSeasonEv, symObjAddr: 0x310, symBinAddr: 0x100015C10, symSize: 0x18 }
  - { offsetInCU: 0x2D04, offset: 0x36E4E, size: 0x8, addend: 0x0, symName: __ZN8Mushroom16getMushroomClassEv, symObjAddr: 0x328, symBinAddr: 0x100015C28, symSize: 0x1C }
  - { offsetInCU: 0x2D2B, offset: 0x36E75, size: 0x8, addend: 0x0, symName: __ZN8Mushroom12getAttributeEi, symObjAddr: 0x344, symBinAddr: 0x100015C44, symSize: 0xF8 }
  - { offsetInCU: 0x29FD, offset: 0x398AC, size: 0x8, addend: 0x0, symName: __ZN4NodeC2Ef, symObjAddr: 0x0, symBinAddr: 0x100015D60, symSize: 0x20 }
  - { offsetInCU: 0x2A36, offset: 0x398E5, size: 0x8, addend: 0x0, symName: __ZN4NodeC1Ef, symObjAddr: 0x20, symBinAddr: 0x100015D80, symSize: 0x34 }
  - { offsetInCU: 0x2A6F, offset: 0x3991E, size: 0x8, addend: 0x0, symName: __ZN4NodeD2Ev, symObjAddr: 0x54, symBinAddr: 0x100015DB4, symSize: 0x14 }
  - { offsetInCU: 0x2A9A, offset: 0x39949, size: 0x8, addend: 0x0, symName: __ZN4NodeD1Ev, symObjAddr: 0x68, symBinAddr: 0x100015DC8, symSize: 0x2C }
  - { offsetInCU: 0x2AC5, offset: 0x39974, size: 0x8, addend: 0x0, symName: __ZN4Node5printEv, symObjAddr: 0x94, symBinAddr: 0x100015DF4, symSize: 0x7C }
  - { offsetInCU: 0x2AEC, offset: 0x3999B, size: 0x8, addend: 0x0, symName: __ZN4Node8getInputEv, symObjAddr: 0x2B8, symBinAddr: 0x100015E70, symSize: 0x18 }
  - { offsetInCU: 0x2B13, offset: 0x399C2, size: 0x8, addend: 0x0, symName: __ZN4Node8setInputEf, symObjAddr: 0x2D0, symBinAddr: 0x100015E88, symSize: 0x20 }
  - { offsetInCU: 0x2B48, offset: 0x399F7, size: 0x8, addend: 0x0, symName: __ZN4Node18activationFunctionEf, symObjAddr: 0x2F0, symBinAddr: 0x100015EA8, symSize: 0x3C }
  - { offsetInCU: 0x69E0, offset: 0x40411, size: 0x8, addend: 0x0, symName: __ZNSt3__17getlineB8ue170006IcNS_11char_traitsIcEENS_9allocatorIcEEEERNS_13basic_istreamIT_T0_EES9_RNS_12basic_stringIS6_S7_T1_EE, symObjAddr: 0x890, symBinAddr: 0x1000166A8, symSize: 0x5C }
  - { offsetInCU: 0x7268, offset: 0x40C99, size: 0x8, addend: 0x0, symName: __ZNSt3__17getlineB8ue170006IcNS_11char_traitsIcEENS_9allocatorIcEEEERNS_13basic_istreamIT_T0_EES9_RNS_12basic_stringIS6_S7_T1_EES6_, symObjAddr: 0xB84, symBinAddr: 0x100016970, symSize: 0x238 }
  - { offsetInCU: 0x733C, offset: 0x40D6D, size: 0x8, addend: 0x0, symName: __ZNSt3__1rsB8ue170006IcNS_11char_traitsIcEENS_9allocatorIcEEEERNS_13basic_istreamIT_T0_EES9_RNS_12basic_stringIS6_S7_T1_EE, symObjAddr: 0x1EC4, symBinAddr: 0x100017BD0, symSize: 0x308 }
  - { offsetInCU: 0x7409, offset: 0x40E3A, size: 0x8, addend: 0x0, symName: __ZNSt3__1eqB8ue170006IcNS_11char_traitsIcEENS_9allocatorIcEEEEbRKNS_12basic_stringIT_T0_T1_EEPKS6_, symObjAddr: 0x21CC, symBinAddr: 0x100017ED8, symSize: 0xAC }
  - { offsetInCU: 0x7470, offset: 0x40EA1, size: 0x8, addend: 0x0, symName: __ZNSt3__122__make_exception_guardB8ue170006INS_6vectorINS1_IfNS_9allocatorIfEEEENS2_IS4_EEE16__destroy_vectorEEENS_28__exception_guard_exceptionsIT_EES9_, symObjAddr: 0x2880, symBinAddr: 0x10001840C, symSize: 0x40 }
  - { offsetInCU: 0x74A5, offset: 0x40ED6, size: 0x8, addend: 0x0, symName: __ZNSt3__130__uninitialized_allocator_copyB8ue170006INS_9allocatorINS_6vectorIfNS1_IfEEEEEEPS4_S6_S6_EET2_RT_T0_T1_S7_, symObjAddr: 0x313C, symBinAddr: 0x10001862C, symSize: 0x80 }
  - { offsetInCU: 0x7542, offset: 0x40F73, size: 0x8, addend: 0x0, symName: __ZNSt3__114__unwrap_rangeB8ue170006IPNS_6vectorIfNS_9allocatorIfEEEES5_EENS_4pairIT0_S7_EET_S9_, symObjAddr: 0x3234, symBinAddr: 0x1000186AC, symSize: 0x60 }
  - { offsetInCU: 0x758E, offset: 0x40FBF, size: 0x8, addend: 0x0, symName: __ZNSt3__135__uninitialized_allocator_copy_implB8ue170006INS_9allocatorINS_6vectorIfNS1_IfEEEEEEPS4_S6_S6_EET2_RT_T0_T1_S7_, symObjAddr: 0x3294, symBinAddr: 0x10001870C, symSize: 0xF4 }
  - { offsetInCU: 0x762C, offset: 0x4105D, size: 0x8, addend: 0x0, symName: __ZNSt3__113__unwrap_iterB8ue170006IPNS_6vectorIfNS_9allocatorIfEEEENS_18__unwrap_iter_implIS5_Lb1EEELi0EEEDTclsrT0_8__unwrapclsr3stdE7declvalIT_EEEES9_, symObjAddr: 0x3388, symBinAddr: 0x100018800, symSize: 0x24 }
  - { offsetInCU: 0x7670, offset: 0x410A1, size: 0x8, addend: 0x0, symName: __ZNSt3__113__rewrap_iterB8ue170006IPNS_6vectorIfNS_9allocatorIfEEEES5_NS_18__unwrap_iter_implIS5_Lb1EEEEET_S8_T0_, symObjAddr: 0x33AC, symBinAddr: 0x100018824, symSize: 0x3C }
  - { offsetInCU: 0x76C5, offset: 0x410F6, size: 0x8, addend: 0x0, symName: __ZNSt3__19make_pairB8ue170006IPNS_6vectorIfNS_9allocatorIfEEEES5_EENS_4pairINS_18__unwrap_ref_decayIT_E4typeENS7_IT0_E4typeEEEOS8_OSB_, symObjAddr: 0x33E8, symBinAddr: 0x100018860, symSize: 0x38 }
  - { offsetInCU: 0x77E8, offset: 0x41219, size: 0x8, addend: 0x0, symName: __ZNSt3__122__make_exception_guardB8ue170006INS_29_AllocatorDestroyRangeReverseINS_9allocatorINS_6vectorIfNS2_IfEEEEEEPS5_EEEENS_28__exception_guard_exceptionsIT_EESA_, symObjAddr: 0x3490, symBinAddr: 0x100018908, symSize: 0x4C }
  - { offsetInCU: 0x781E, offset: 0x4124F, size: 0x8, addend: 0x0, symName: __ZNSt3__119__allocator_destroyB8ue170006INS_9allocatorINS_6vectorIfNS1_IfEEEEEENS_16reverse_iteratorIPS4_EES8_EEvRT_T0_T1_, symObjAddr: 0x4A3C, symBinAddr: 0x100018B98, symSize: 0x70 }
  - { offsetInCU: 0x78D4, offset: 0x41305, size: 0x8, addend: 0x0, symName: __ZNSt3__16fill_nB8ue170006IPfmfEET_S2_T0_RKT1_, symObjAddr: 0x546C, symBinAddr: 0x100018DA0, symSize: 0x44 }
  - { offsetInCU: 0x7937, offset: 0x41368, size: 0x8, addend: 0x0, symName: __ZNSt3__18__fill_nB8ue170006IPfmfEET_S2_T0_RKT1_, symObjAddr: 0x5714, symBinAddr: 0x100018F00, symSize: 0x64 }
  - { offsetInCU: 0x799A, offset: 0x413CB, size: 0x8, addend: 0x0, symName: __ZNSt3__121__convert_to_integralB8ue170006Em, symObjAddr: 0x5778, symBinAddr: 0x100018F64, symSize: 0x14 }
  - { offsetInCU: 0xC831, offset: 0x46262, size: 0x8, addend: 0x0, symName: __Z13normalizeDataRKNSt3__16vectorINS0_IfNS_9allocatorIfEEEENS1_IS3_EEEE, symObjAddr: 0x0, symBinAddr: 0x100015EE4, symSize: 0x264 }
  - { offsetInCU: 0xC90B, offset: 0x4633C, size: 0x8, addend: 0x0, symName: __ZNSt3__16vectorINS0_IfNS_9allocatorIfEEEENS1_IS3_EEEC1ERKS5_, symObjAddr: 0x264, symBinAddr: 0x100016148, symSize: 0x34 }
  - { offsetInCU: 0xC945, offset: 0x46376, size: 0x8, addend: 0x0, symName: __ZNKSt3__16vectorINS0_IfNS_9allocatorIfEEEENS1_IS3_EEEixB8ue170006Em, symObjAddr: 0x298, symBinAddr: 0x10001617C, symSize: 0x2C }
  - { offsetInCU: 0xC97B, offset: 0x463AC, size: 0x8, addend: 0x0, symName: __ZNKSt3__16vectorIfNS_9allocatorIfEEEixB8ue170006Em, symObjAddr: 0x314, symBinAddr: 0x1000161A8, symSize: 0x24 }
  - { offsetInCU: 0xC9B1, offset: 0x463E2, size: 0x8, addend: 0x0, symName: __Z16computeMinAndMaxNSt3__112basic_stringIcNS_11char_traitsIcEENS_9allocatorIcEEEERNS_6vectorIfNS3_IfEEEES9_, symObjAddr: 0x3B4, symBinAddr: 0x1000161CC, symSize: 0x344 }
  - { offsetInCU: 0xCB44, offset: 0x46575, size: 0x8, addend: 0x0, symName: __ZNSt3__114basic_ifstreamIcNS_11char_traitsIcEEEC1ERKNS_12basic_stringIcS2_NS_9allocatorIcEEEEj, symObjAddr: 0x6F8, symBinAddr: 0x100016510, symSize: 0x16C }
  - { offsetInCU: 0xCB8D, offset: 0x465BE, size: 0x8, addend: 0x0, symName: __ZNSt3__112basic_stringIcNS_11char_traitsIcEENS_9allocatorIcEEEC1B8ue170006Ev, symObjAddr: 0x864, symBinAddr: 0x10001667C, symSize: 0x2C }
  - { offsetInCU: 0xCBB5, offset: 0x465E6, size: 0x8, addend: 0x0, symName: __ZNSt3__16vectorIfNS_9allocatorIfEEE6assignEmRKf, symObjAddr: 0x8EC, symBinAddr: 0x100016704, symSize: 0x108 }
  - { offsetInCU: 0xCC18, offset: 0x46649, size: 0x8, addend: 0x0, symName: __ZNSt3__114numeric_limitsIfE3maxB8ue170006Ev, symObjAddr: 0x9F4, symBinAddr: 0x10001680C, symSize: 0x14 }
  - { offsetInCU: 0xCC2C, offset: 0x4665D, size: 0x8, addend: 0x0, symName: __ZNSt3__114numeric_limitsIfE6lowestB8ue170006Ev, symObjAddr: 0xA08, symBinAddr: 0x100016820, symSize: 0x14 }
  - { offsetInCU: 0xCC40, offset: 0x46671, size: 0x8, addend: 0x0, symName: __ZNKSt3__19basic_iosIcNS_11char_traitsIcEEEcvbB8ue170006Ev, symObjAddr: 0xA1C, symBinAddr: 0x100016834, symSize: 0x2C }
  - { offsetInCU: 0xCCC4, offset: 0x466F5, size: 0x8, addend: 0x0, symName: __ZNSt3__118basic_stringstreamIcNS_11char_traitsIcEENS_9allocatorIcEEEC1B8ue170006ERKNS_12basic_stringIcS2_S4_EEj, symObjAddr: 0xA48, symBinAddr: 0x100016860, symSize: 0x110 }
  - { offsetInCU: 0xCD10, offset: 0x46741, size: 0x8, addend: 0x0, symName: __ZNSt3__118basic_stringstreamIcNS_11char_traitsIcEENS_9allocatorIcEEED1Ev, symObjAddr: 0xE54, symBinAddr: 0x100016BA8, symSize: 0x40 }
  - { offsetInCU: 0xCD41, offset: 0x46772, size: 0x8, addend: 0x0, symName: __ZNSt3__114basic_ifstreamIcNS_11char_traitsIcEEED1Ev, symObjAddr: 0xE94, symBinAddr: 0x100016BE8, symSize: 0x40 }
  - { offsetInCU: 0xCD6D, offset: 0x4679E, size: 0x8, addend: 0x0, symName: _main, symObjAddr: 0xED4, symBinAddr: 0x100016C28, symSize: 0x3AC }
  - { offsetInCU: 0xCDD5, offset: 0x46806, size: 0x8, addend: 0x0, symName: __ZNSt3__112basic_stringIcNS_11char_traitsIcEENS_9allocatorIcEEEC1B8ue170006ILi0EEEPKc, symObjAddr: 0x1280, symBinAddr: 0x100016FD4, symSize: 0x34 }
  - { offsetInCU: 0xCE13, offset: 0x46844, size: 0x8, addend: 0x0, symName: __Z11csvToObjectI3ANNEvNSt3__112basic_stringIcNS1_11char_traitsIcEENS1_9allocatorIcEEEEPT_RKNS1_6vectorIfNS5_IfEEEESE_b, symObjAddr: 0x12B4, symBinAddr: 0x100017008, symSize: 0x5E4 }
  - { offsetInCU: 0xCF88, offset: 0x469B9, size: 0x8, addend: 0x0, symName: __Z11csvToObjectI2GPEvNSt3__112basic_stringIcNS1_11char_traitsIcEENS1_9allocatorIcEEEEPT_RKNS1_6vectorIfNS5_IfEEEESE_b, symObjAddr: 0x1898, symBinAddr: 0x1000175EC, symSize: 0x5E4 }
  - { offsetInCU: 0xD0FD, offset: 0x46B2E, size: 0x8, addend: 0x0, symName: __ZNSt3__123__libcpp_numeric_limitsIfLb1EE3maxB8ue170006Ev, symObjAddr: 0x2278, symBinAddr: 0x100017F84, symSize: 0xC }
  - { offsetInCU: 0xD111, offset: 0x46B42, size: 0x8, addend: 0x0, symName: __ZNSt3__123__libcpp_numeric_limitsIfLb1EE6lowestB8ue170006Ev, symObjAddr: 0x2284, symBinAddr: 0x100017F90, symSize: 0x18 }
  - { offsetInCU: 0xD125, offset: 0x46B56, size: 0x8, addend: 0x0, symName: __ZNSt3__118basic_stringstreamIcNS_11char_traitsIcEENS_9allocatorIcEEED2Ev, symObjAddr: 0x229C, symBinAddr: 0x100017FA8, symSize: 0x6C }
  - { offsetInCU: 0xD15D, offset: 0x46B8E, size: 0x8, addend: 0x0, symName: __ZThn16_NSt3__118basic_stringstreamIcNS_11char_traitsIcEENS_9allocatorIcEEED1Ev, symObjAddr: 0x2308, symBinAddr: 0x100018014, symSize: 0x1C }
  - { offsetInCU: 0xD174, offset: 0x46BA5, size: 0x8, addend: 0x0, symName: __ZTv0_n24_NSt3__118basic_stringstreamIcNS_11char_traitsIcEENS_9allocatorIcEEED1Ev, symObjAddr: 0x2324, symBinAddr: 0x100018030, symSize: 0x28 }
  - { offsetInCU: 0xD190, offset: 0x46BC1, size: 0x8, addend: 0x0, symName: __ZNSt3__115basic_stringbufIcNS_11char_traitsIcEENS_9allocatorIcEEED1Ev, symObjAddr: 0x234C, symBinAddr: 0x100018058, symSize: 0x2C }
  - { offsetInCU: 0xD1BC, offset: 0x46BED, size: 0x8, addend: 0x0, symName: __ZNSt3__115basic_stringbufIcNS_11char_traitsIcEENS_9allocatorIcEEED2Ev, symObjAddr: 0x2378, symBinAddr: 0x100018084, symSize: 0x48 }
  - { offsetInCU: 0xD1E8, offset: 0x46C19, size: 0x8, addend: 0x0, symName: __ZNSt3__114basic_ifstreamIcNS_11char_traitsIcEEED2Ev, symObjAddr: 0x23C0, symBinAddr: 0x1000180CC, symSize: 0x64 }
  - { offsetInCU: 0xD220, offset: 0x46C51, size: 0x8, addend: 0x0, symName: __ZTv0_n24_NSt3__114basic_ifstreamIcNS_11char_traitsIcEEED1Ev, symObjAddr: 0x2424, symBinAddr: 0x100018130, symSize: 0x28 }
  - { offsetInCU: 0xD237, offset: 0x46C68, size: 0x8, addend: 0x0, symName: __ZNSt3__112basic_stringIcNS_11char_traitsIcEENS_9allocatorIcEEEC2B8ue170006Ev, symObjAddr: 0x244C, symBinAddr: 0x100018158, symSize: 0x48 }
  - { offsetInCU: 0xD265, offset: 0x46C96, size: 0x8, addend: 0x0, symName: __ZNSt3__112basic_stringIcNS_11char_traitsIcEENS_9allocatorIcEEE14__default_initB8ue170006Ev, symObjAddr: 0x24DC, symBinAddr: 0x1000181A0, symSize: 0x40 }
  - { offsetInCU: 0xD28A, offset: 0x46CBB, size: 0x8, addend: 0x0, symName: __ZNSt3__117__compressed_pairINS_12basic_stringIcNS_11char_traitsIcEENS_9allocatorIcEEE5__repES5_E5firstB8ue170006Ev, symObjAddr: 0x25D8, symBinAddr: 0x1000181E0, symSize: 0x24 }
  - { offsetInCU: 0xD2AF, offset: 0x46CE0, size: 0x8, addend: 0x0, symName: __ZNSt3__122__compressed_pair_elemINS_12basic_stringIcNS_11char_traitsIcEENS_9allocatorIcEEE5__repELi0ELb0EE5__getB8ue170006Ev, symObjAddr: 0x25FC, symBinAddr: 0x100018204, symSize: 0x14 }
  - { offsetInCU: 0xD2D4, offset: 0x46D05, size: 0x8, addend: 0x0, symName: __ZNSt3__16vectorINS0_IfNS_9allocatorIfEEEENS1_IS3_EEEC2ERKS5_, symObjAddr: 0x2610, symBinAddr: 0x100018218, symSize: 0x94 }
  - { offsetInCU: 0xD318, offset: 0x46D49, size: 0x8, addend: 0x0, symName: __ZNSt3__116allocator_traitsINS_9allocatorINS_6vectorIfNS1_IfEEEEEEE37select_on_container_copy_constructionB8ue170006IS5_vvEES5_RKS5_, symObjAddr: 0x26A4, symBinAddr: 0x1000182AC, symSize: 0x10 }
  - { offsetInCU: 0xD351, offset: 0x46D82, size: 0x8, addend: 0x0, symName: __ZNSt3__117__compressed_pairIPNS_6vectorIfNS_9allocatorIfEEEENS2_IS4_EEEC1B8ue170006IDnS6_EEOT_OT0_, symObjAddr: 0x26DC, symBinAddr: 0x1000182BC, symSize: 0x3C }
  - { offsetInCU: 0xD3A8, offset: 0x46DD9, size: 0x8, addend: 0x0, symName: __ZNSt3__16vectorINS0_IfNS_9allocatorIfEEEENS1_IS3_EEE16__init_with_sizeB8ue170006IPS3_S7_EEvT_T0_m, symObjAddr: 0x2718, symBinAddr: 0x1000182F8, symSize: 0xB8 }
  - { offsetInCU: 0xD41B, offset: 0x46E4C, size: 0x8, addend: 0x0, symName: __ZNSt3__117__compressed_pairIPNS_6vectorIfNS_9allocatorIfEEEENS2_IS4_EEEC2B8ue170006IDnS6_EEOT_OT0_, symObjAddr: 0x2808, symBinAddr: 0x1000183B0, symSize: 0x44 }
  - { offsetInCU: 0xD472, offset: 0x46EA3, size: 0x8, addend: 0x0, symName: __ZNSt3__122__compressed_pair_elemINS_9allocatorINS_6vectorIfNS1_IfEEEEEELi1ELb1EEC2B8ue170006IS5_vEEOT_, symObjAddr: 0x2868, symBinAddr: 0x1000183F4, symSize: 0x18 }
  - { offsetInCU: 0xD4B3, offset: 0x46EE4, size: 0x8, addend: 0x0, symName: __ZNSt3__16vectorINS0_IfNS_9allocatorIfEEEENS1_IS3_EEE11__vallocateB8ue170006Em, symObjAddr: 0x28F4, symBinAddr: 0x10001844C, symSize: 0xB4 }
  - { offsetInCU: 0xD4F5, offset: 0x46F26, size: 0x8, addend: 0x0, symName: __ZNSt3__16vectorINS0_IfNS_9allocatorIfEEEENS1_IS3_EEE18__construct_at_endIPS3_S7_EEvT_T0_m, symObjAddr: 0x29A8, symBinAddr: 0x100018500, symSize: 0x8C }
  - { offsetInCU: 0xD56A, offset: 0x46F9B, size: 0x8, addend: 0x0, symName: __ZNSt3__128__exception_guard_exceptionsINS_6vectorINS1_IfNS_9allocatorIfEEEENS2_IS4_EEE16__destroy_vectorEE10__completeB8ue170006Ev, symObjAddr: 0x2A34, symBinAddr: 0x10001858C, symSize: 0x1C }
  - { offsetInCU: 0xD58F, offset: 0x46FC0, size: 0x8, addend: 0x0, symName: __ZNSt3__128__exception_guard_exceptionsINS_6vectorINS1_IfNS_9allocatorIfEEEENS2_IS4_EEE16__destroy_vectorEED1B8ue170006Ev, symObjAddr: 0x2A50, symBinAddr: 0x1000185A8, symSize: 0x2C }
  - { offsetInCU: 0xD5B8, offset: 0x46FE9, size: 0x8, addend: 0x0, symName: __ZNSt3__128__exception_guard_exceptionsINS_6vectorINS1_IfNS_9allocatorIfEEEENS2_IS4_EEE16__destroy_vectorEEC1B8ue170006ES7_, symObjAddr: 0x2A7C, symBinAddr: 0x1000185D4, symSize: 0x34 }
  - { offsetInCU: 0xD5EF, offset: 0x47020, size: 0x8, addend: 0x0, symName: __ZNSt3__128__exception_guard_exceptionsINS_6vectorINS1_IfNS_9allocatorIfEEEENS2_IS4_EEE16__destroy_vectorEEC2B8ue170006ES7_, symObjAddr: 0x2AB0, symBinAddr: 0x100018608, symSize: 0x24 }
  - { offsetInCU: 0xD65D, offset: 0x4708E, size: 0x8, addend: 0x0, symName: __ZNSt3__14pairIPNS_6vectorIfNS_9allocatorIfEEEES5_EC1B8ue170006IS5_S5_LPv0EEEOT_OT0_, symObjAddr: 0x3420, symBinAddr: 0x100018898, symSize: 0x3C }
  - { offsetInCU: 0xD6BA, offset: 0x470EB, size: 0x8, addend: 0x0, symName: __ZNSt3__14pairIPNS_6vectorIfNS_9allocatorIfEEEES5_EC2B8ue170006IS5_S5_LPv0EEEOT_OT0_, symObjAddr: 0x345C, symBinAddr: 0x1000188D4, symSize: 0x34 }
  - { offsetInCU: 0xD717, offset: 0x47148, size: 0x8, addend: 0x0, symName: __ZNSt3__129_AllocatorDestroyRangeReverseINS_9allocatorINS_6vectorIfNS1_IfEEEEEEPS4_EC1B8ue170006ERS5_RS6_S9_, symObjAddr: 0x34DC, symBinAddr: 0x100018954, symSize: 0x44 }
  - { offsetInCU: 0xD76D, offset: 0x4719E, size: 0x8, addend: 0x0, symName: __ZNSt3__116allocator_traitsINS_9allocatorINS_6vectorIfNS1_IfEEEEEEE9constructB8ue170006IS4_JRS4_EvEEvRS5_PT_DpOT0_, symObjAddr: 0x3520, symBinAddr: 0x100018998, symSize: 0x34 }
  - { offsetInCU: 0xD7C4, offset: 0x471F5, size: 0x8, addend: 0x0, symName: __ZNSt3__128__exception_guard_exceptionsINS_29_AllocatorDestroyRangeReverseINS_9allocatorINS_6vectorIfNS2_IfEEEEEEPS5_EEE10__completeB8ue170006Ev, symObjAddr: 0x3554, symBinAddr: 0x1000189CC, symSize: 0x1C }
  - { offsetInCU: 0xD7E9, offset: 0x4721A, size: 0x8, addend: 0x0, symName: __ZNSt3__128__exception_guard_exceptionsINS_29_AllocatorDestroyRangeReverseINS_9allocatorINS_6vectorIfNS2_IfEEEEEEPS5_EEED1B8ue170006Ev, symObjAddr: 0x3570, symBinAddr: 0x1000189E8, symSize: 0x2C }
  - { offsetInCU: 0xD812, offset: 0x47243, size: 0x8, addend: 0x0, symName: __ZNSt3__128__exception_guard_exceptionsINS_29_AllocatorDestroyRangeReverseINS_9allocatorINS_6vectorIfNS2_IfEEEEEEPS5_EEEC1B8ue170006ES8_, symObjAddr: 0x359C, symBinAddr: 0x100018A14, symSize: 0x34 }
  - { offsetInCU: 0xD84A, offset: 0x4727B, size: 0x8, addend: 0x0, symName: __ZNSt3__128__exception_guard_exceptionsINS_29_AllocatorDestroyRangeReverseINS_9allocatorINS_6vectorIfNS2_IfEEEEEEPS5_EEEC2B8ue170006ES8_, symObjAddr: 0x35D0, symBinAddr: 0x100018A48, symSize: 0x30 }
  - { offsetInCU: 0xD882, offset: 0x472B3, size: 0x8, addend: 0x0, symName: __ZNSt3__129_AllocatorDestroyRangeReverseINS_9allocatorINS_6vectorIfNS1_IfEEEEEEPS4_EC2B8ue170006ERS5_RS6_S9_, symObjAddr: 0x3600, symBinAddr: 0x100018A78, symSize: 0x38 }
  - { offsetInCU: 0xD8D8, offset: 0x47309, size: 0x8, addend: 0x0, symName: __ZNSt3__19allocatorINS_6vectorIfNS0_IfEEEEE9constructB8ue170006IS3_JRS3_EEEvPT_DpOT0_, symObjAddr: 0x3638, symBinAddr: 0x100018AB0, symSize: 0x30 }
  - { offsetInCU: 0xD946, offset: 0x47377, size: 0x8, addend: 0x0, symName: __ZNSt3__128__exception_guard_exceptionsINS_29_AllocatorDestroyRangeReverseINS_9allocatorINS_6vectorIfNS2_IfEEEEEEPS5_EEED2B8ue170006Ev, symObjAddr: 0x4984, symBinAddr: 0x100018AE0, symSize: 0x50 }
  - { offsetInCU: 0xD96F, offset: 0x473A0, size: 0x8, addend: 0x0, symName: __ZNKSt3__129_AllocatorDestroyRangeReverseINS_9allocatorINS_6vectorIfNS1_IfEEEEEEPS4_EclB8ue170006Ev, symObjAddr: 0x49D4, symBinAddr: 0x100018B30, symSize: 0x68 }
  - { offsetInCU: 0xD994, offset: 0x473C5, size: 0x8, addend: 0x0, symName: __ZNSt3__118__unwrap_iter_implIPNS_6vectorIfNS_9allocatorIfEEEELb1EE8__unwrapB8ue170006ES5_, symObjAddr: 0x4C84, symBinAddr: 0x100018C08, symSize: 0x24 }
  - { offsetInCU: 0xD9B7, offset: 0x473E8, size: 0x8, addend: 0x0, symName: __ZNSt3__118__unwrap_iter_implIPNS_6vectorIfNS_9allocatorIfEEEELb1EE8__rewrapB8ue170006ES5_S5_, symObjAddr: 0x4CA8, symBinAddr: 0x100018C2C, symSize: 0x58 }
  - { offsetInCU: 0xD9E8, offset: 0x47419, size: 0x8, addend: 0x0, symName: __ZNSt3__128__exception_guard_exceptionsINS_6vectorINS1_IfNS_9allocatorIfEEEENS2_IS4_EEE16__destroy_vectorEED2B8ue170006Ev, symObjAddr: 0x4D20, symBinAddr: 0x100018C84, symSize: 0x50 }
  - { offsetInCU: 0xDA11, offset: 0x47442, size: 0x8, addend: 0x0, symName: __ZNSt3__113basic_istreamIcNS_11char_traitsIcEEEC2B8ue170006EPNS_15basic_streambufIcS2_EE, symObjAddr: 0x5084, symBinAddr: 0x100018CD4, symSize: 0x64 }
  - { offsetInCU: 0xDA53, offset: 0x47484, size: 0x8, addend: 0x0, symName: __ZNSt3__113basic_filebufIcNS_11char_traitsIcEEE4openERKNS_12basic_stringIcS2_NS_9allocatorIcEEEEj, symObjAddr: 0x50E8, symBinAddr: 0x100018D38, symSize: 0x44 }
  - { offsetInCU: 0xDA96, offset: 0x474C7, size: 0x8, addend: 0x0, symName: __ZNKSt3__112basic_stringIcNS_11char_traitsIcEENS_9allocatorIcEEE5c_strB8ue170006Ev, symObjAddr: 0x51C8, symBinAddr: 0x100018D7C, symSize: 0x24 }
  - { offsetInCU: 0xDABF, offset: 0x474F0, size: 0x8, addend: 0x0, symName: __ZNSt3__16vectorIfNS_9allocatorIfEEE18__construct_at_endEmRKf, symObjAddr: 0x54B0, symBinAddr: 0x100018DE4, symSize: 0xD0 }
  - { offsetInCU: 0xDB40, offset: 0x47571, size: 0x8, addend: 0x0, symName: __ZNSt3__16vectorIfNS_9allocatorIfEEE17__destruct_at_endB8ue170006EPf, symObjAddr: 0x5580, symBinAddr: 0x100018EB4, symSize: 0x4C }
  - { offsetInCU: 0xDB83, offset: 0x475B4, size: 0x8, addend: 0x0, symName: __ZNKSt3__19basic_iosIcNS_11char_traitsIcEEE4failB8ue170006Ev, symObjAddr: 0x5960, symBinAddr: 0x100018F78, symSize: 0x28 }
  - { offsetInCU: 0xDBA8, offset: 0x475D9, size: 0x8, addend: 0x0, symName: __ZNKSt3__18ios_base4failB8ue170006Ev, symObjAddr: 0x5988, symBinAddr: 0x100018FA0, symSize: 0x28 }
  - { offsetInCU: 0xDBCF, offset: 0x47600, size: 0x8, addend: 0x0, symName: __ZNSt3__114basic_iostreamIcNS_11char_traitsIcEEEC2B8ue170006EPNS_15basic_streambufIcS2_EE, symObjAddr: 0x59B0, symBinAddr: 0x100018FC8, symSize: 0xAC }
  - { offsetInCU: 0xDC13, offset: 0x47644, size: 0x8, addend: 0x0, symName: __ZNSt3__115basic_stringbufIcNS_11char_traitsIcEENS_9allocatorIcEEEC1B8ue170006ERKNS_12basic_stringIcS2_S4_EEj, symObjAddr: 0x5A5C, symBinAddr: 0x100019074, symSize: 0x3C }
  - { offsetInCU: 0xDC5A, offset: 0x4768B, size: 0x8, addend: 0x0, symName: __ZNSt3__113basic_ostreamIcNS_11char_traitsIcEEEC2B8ue170006Ev, symObjAddr: 0x5A98, symBinAddr: 0x1000190B0, symSize: 0x34 }
  - { offsetInCU: 0xDC8F, offset: 0x476C0, size: 0x8, addend: 0x0, symName: __ZNSt3__115basic_stringbufIcNS_11char_traitsIcEENS_9allocatorIcEEEC2B8ue170006ERKNS_12basic_stringIcS2_S4_EEj, symObjAddr: 0x5ACC, symBinAddr: 0x1000190E4, symSize: 0xB4 }
  - { offsetInCU: 0xDCD6, offset: 0x47707, size: 0x8, addend: 0x0, symName: __ZNKSt3__112basic_stringIcNS_11char_traitsIcEENS_9allocatorIcEEE13get_allocatorB8ue170006Ev, symObjAddr: 0x5B80, symBinAddr: 0x100019198, symSize: 0x24 }
  - { offsetInCU: 0xDCFB, offset: 0x4772C, size: 0x8, addend: 0x0, symName: __ZNSt3__112basic_stringIcNS_11char_traitsIcEENS_9allocatorIcEEEC1B8ue170006ERKS4_, symObjAddr: 0x5BA4, symBinAddr: 0x1000191BC, symSize: 0x34 }
  - { offsetInCU: 0xDD33, offset: 0x47764, size: 0x8, addend: 0x0, symName: __ZNKSt3__112basic_stringIcNS_11char_traitsIcEENS_9allocatorIcEEE7__allocB8ue170006Ev, symObjAddr: 0x5BD8, symBinAddr: 0x1000191F0, symSize: 0x24 }
  - { offsetInCU: 0xDD58, offset: 0x47789, size: 0x8, addend: 0x0, symName: __ZNKSt3__117__compressed_pairINS_12basic_stringIcNS_11char_traitsIcEENS_9allocatorIcEEE5__repES5_E6secondB8ue170006Ev, symObjAddr: 0x5BFC, symBinAddr: 0x100019214, symSize: 0x24 }
  - { offsetInCU: 0xDD7D, offset: 0x477AE, size: 0x8, addend: 0x0, symName: __ZNKSt3__122__compressed_pair_elemINS_9allocatorIcEELi1ELb1EE5__getB8ue170006Ev, symObjAddr: 0x5C20, symBinAddr: 0x100019238, symSize: 0x14 }
  - { offsetInCU: 0xDDA2, offset: 0x477D3, size: 0x8, addend: 0x0, symName: __ZNSt3__112basic_stringIcNS_11char_traitsIcEENS_9allocatorIcEEEC2B8ue170006ERKS4_, symObjAddr: 0x5C34, symBinAddr: 0x10001924C, symSize: 0x48 }
  - { offsetInCU: 0xDDDA, offset: 0x4780B, size: 0x8, addend: 0x0, symName: __ZNSt3__117__compressed_pairINS_12basic_stringIcNS_11char_traitsIcEENS_9allocatorIcEEE5__repES5_EC1B8ue170006INS_18__default_init_tagERKS5_EEOT_OT0_, symObjAddr: 0x5C7C, symBinAddr: 0x100019294, symSize: 0x3C }
  - { offsetInCU: 0xDE31, offset: 0x47862, size: 0x8, addend: 0x0, symName: __ZNSt3__117__compressed_pairINS_12basic_stringIcNS_11char_traitsIcEENS_9allocatorIcEEE5__repES5_EC2B8ue170006INS_18__default_init_tagERKS5_EEOT_OT0_, symObjAddr: 0x5CB8, symBinAddr: 0x1000192D0, symSize: 0x40 }
  - { offsetInCU: 0xDE88, offset: 0x478B9, size: 0x8, addend: 0x0, symName: __ZNSt3__122__compressed_pair_elemINS_9allocatorIcEELi1ELb1EEC2B8ue170006IRKS2_vEEOT_, symObjAddr: 0x5CF8, symBinAddr: 0x100019310, symSize: 0x18 }
  - { offsetInCU: 0xDEE7, offset: 0x47918, size: 0x8, addend: 0x0, symName: __ZNKSt3__113basic_istreamIcNS_11char_traitsIcEEE6sentrycvbB8ue170006Ev, symObjAddr: 0x5E84, symBinAddr: 0x100019328, symSize: 0x1C }
  - { offsetInCU: 0xDF0B, offset: 0x4793C, size: 0x8, addend: 0x0, symName: __ZNSt3__112basic_stringIcNS_11char_traitsIcEENS_9allocatorIcEEE5clearB8ue170006Ev, symObjAddr: 0x5EA0, symBinAddr: 0x100019344, symSize: 0x78 }
  - { offsetInCU: 0xDF32, offset: 0x47963, size: 0x8, addend: 0x0, symName: __ZNSt3__115basic_streambufIcNS_11char_traitsIcEEE6sbumpcB8ue170006Ev, symObjAddr: 0x5F3C, symBinAddr: 0x1000193BC, symSize: 0x78 }
  - { offsetInCU: 0xDF57, offset: 0x47988, size: 0x8, addend: 0x0, symName: __ZNSt3__111char_traitsIcE12to_char_typeB8ue170006Ei, symObjAddr: 0x5FDC, symBinAddr: 0x100019434, symSize: 0x18 }
  - { offsetInCU: 0xDF7A, offset: 0x479AB, size: 0x8, addend: 0x0, symName: __ZNSt3__111char_traitsIcE2eqEcc, symObjAddr: 0x5FF4, symBinAddr: 0x10001944C, symSize: 0x28 }
  - { offsetInCU: 0xDFAB, offset: 0x479DC, size: 0x8, addend: 0x0, symName: __ZNKSt3__112basic_stringIcNS_11char_traitsIcEENS_9allocatorIcEEE4sizeB8ue170006Ev, symObjAddr: 0x601C, symBinAddr: 0x100019474, symSize: 0x54 }
  - { offsetInCU: 0xDFD0, offset: 0x47A01, size: 0x8, addend: 0x0, symName: __ZNKSt3__112basic_stringIcNS_11char_traitsIcEENS_9allocatorIcEEE8max_sizeB8ue170006Ev, symObjAddr: 0x6070, symBinAddr: 0x1000194C8, symSize: 0xAC }
  - { offsetInCU: 0xE022, offset: 0x47A53, size: 0x8, addend: 0x0, symName: __ZNSt3__18ios_base18__setstate_nothrowB8ue170006Ej, symObjAddr: 0x611C, symBinAddr: 0x100019574, symSize: 0x64 }
  - { offsetInCU: 0xE056, offset: 0x47A87, size: 0x8, addend: 0x0, symName: __ZNKSt3__19basic_iosIcNS_11char_traitsIcEEE10exceptionsB8ue170006Ev, symObjAddr: 0x6180, symBinAddr: 0x1000195D8, symSize: 0x24 }
  - { offsetInCU: 0xE07B, offset: 0x47AAC, size: 0x8, addend: 0x0, symName: __ZNSt3__111char_traitsIcE6assignB8ue170006ERcRKc, symObjAddr: 0x61A4, symBinAddr: 0x1000195FC, symSize: 0x24 }
  - { offsetInCU: 0xE0AC, offset: 0x47ADD, size: 0x8, addend: 0x0, symName: __ZNSt3__112basic_stringIcNS_11char_traitsIcEENS_9allocatorIcEEE18__get_long_pointerB8ue170006Ev, symObjAddr: 0x61C8, symBinAddr: 0x100019620, symSize: 0x28 }
  - { offsetInCU: 0xE0D1, offset: 0x47B02, size: 0x8, addend: 0x0, symName: __ZNSt3__112basic_stringIcNS_11char_traitsIcEENS_9allocatorIcEEE15__set_long_sizeB8ue170006Em, symObjAddr: 0x61F0, symBinAddr: 0x100019648, symSize: 0x38 }
  - { offsetInCU: 0xE105, offset: 0x47B36, size: 0x8, addend: 0x0, symName: __ZNSt3__112basic_stringIcNS_11char_traitsIcEENS_9allocatorIcEEE19__get_short_pointerB8ue170006Ev, symObjAddr: 0x6228, symBinAddr: 0x100019680, symSize: 0x28 }
  - { offsetInCU: 0xE12A, offset: 0x47B5B, size: 0x8, addend: 0x0, symName: __ZNSt3__112basic_stringIcNS_11char_traitsIcEENS_9allocatorIcEEE16__set_short_sizeB8ue170006Em, symObjAddr: 0x6250, symBinAddr: 0x1000196A8, symSize: 0x78 }
  - { offsetInCU: 0xE15E, offset: 0x47B8F, size: 0x8, addend: 0x0, symName: __ZNSt3__114pointer_traitsIPcE10pointer_toB8ue170006ERc, symObjAddr: 0x62C8, symBinAddr: 0x100019720, symSize: 0x14 }
  - { offsetInCU: 0xE181, offset: 0x47BB2, size: 0x8, addend: 0x0, symName: __ZNSt3__111char_traitsIcE11to_int_typeB8ue170006Ec, symObjAddr: 0x62F4, symBinAddr: 0x100019734, symSize: 0x14 }
  - { offsetInCU: 0xE1A5, offset: 0x47BD6, size: 0x8, addend: 0x0, symName: __ZNKSt3__112basic_stringIcNS_11char_traitsIcEENS_9allocatorIcEEE15__get_long_sizeB8ue170006Ev, symObjAddr: 0x6308, symBinAddr: 0x100019748, symSize: 0x28 }
  - { offsetInCU: 0xE1CA, offset: 0x47BFB, size: 0x8, addend: 0x0, symName: __ZNKSt3__112basic_stringIcNS_11char_traitsIcEENS_9allocatorIcEEE16__get_short_sizeB8ue170006Ev, symObjAddr: 0x6330, symBinAddr: 0x100019770, symSize: 0x34 }
  - { offsetInCU: 0xE1F9, offset: 0x47C2A, size: 0x8, addend: 0x0, symName: __ZNSt3__116allocator_traitsINS_9allocatorIcEEE8max_sizeB8ue170006IS2_vEEmRKS2_, symObjAddr: 0x6364, symBinAddr: 0x1000197A4, symSize: 0x24 }
  - { offsetInCU: 0xE227, offset: 0x47C58, size: 0x8, addend: 0x0, symName: __ZNKSt3__19allocatorIcE8max_sizeB8ue170006Ev, symObjAddr: 0x639C, symBinAddr: 0x1000197C8, symSize: 0x14 }
  - { offsetInCU: 0xE24C, offset: 0x47C7D, size: 0x8, addend: 0x0, symName: __ZNKSt3__18ios_base10exceptionsB8ue170006Ev, symObjAddr: 0x63B8, symBinAddr: 0x1000197DC, symSize: 0x18 }
  - { offsetInCU: 0xE278, offset: 0x47CA9, size: 0x8, addend: 0x0, symName: __ZNSt3__112basic_stringIcNS_11char_traitsIcEENS_9allocatorIcEEEC2B8ue170006ILi0EEEPKc, symObjAddr: 0x72AC, symBinAddr: 0x1000197F4, symSize: 0x58 }
  - { offsetInCU: 0xE2B6, offset: 0x47CE7, size: 0x8, addend: 0x0, symName: __Z5isnanB8ue170006f, symObjAddr: 0x735C, symBinAddr: 0x10001984C, symSize: 0x20 }
  - { offsetInCU: 0xE302, offset: 0x47D33, size: 0x8, addend: 0x0, symName: __ZNSt3__115basic_streambufIcNS_11char_traitsIcEEE5sgetcB8ue170006Ev, symObjAddr: 0x79F4, symBinAddr: 0x10001986C, symSize: 0x70 }
  - { offsetInCU: 0xE327, offset: 0x47D58, size: 0x8, addend: 0x0, symName: __ZNKSt3__15ctypeIcE2isB8ue170006Ejc, symObjAddr: 0x7A64, symBinAddr: 0x1000198DC, symSize: 0x7C }
  - { offsetInCU: 0xE369, offset: 0x47D9A, size: 0x8, addend: 0x0, symName: __Z7isasciii, symObjAddr: 0x7AE0, symBinAddr: 0x100019958, symSize: 0x24 }
...
